
five_btns_audio.elf:     file format elf32-avr

Sections:
Idx Name          Size      VMA       LMA       File off  Algn
  0 .text         00006608  00000000  00000000  00000094  2**1
                  CONTENTS, ALLOC, LOAD, READONLY, CODE
  1 .data         00000006  00800060  00006608  0000669c  2**0
                  CONTENTS, ALLOC, LOAD, DATA
  2 .bss          0000000c  00800066  00800066  000066a2  2**0
                  ALLOC
  3 .stab         00000ea0  00000000  00000000  000066a4  2**2
                  CONTENTS, READONLY, DEBUGGING
  4 .stabstr      000007d8  00000000  00000000  00007544  2**0
                  CONTENTS, READONLY, DEBUGGING

Disassembly of section .text:

00000000 <__vectors>:
       0:	0c 94 c9 2e 	jmp	0x5d92	; 0x5d92 <__ctors_end>
       4:	0c 94 e6 2e 	jmp	0x5dcc	; 0x5dcc <__bad_interrupt>
       8:	0c 94 e6 2e 	jmp	0x5dcc	; 0x5dcc <__bad_interrupt>
       c:	0c 94 e6 2e 	jmp	0x5dcc	; 0x5dcc <__bad_interrupt>
      10:	0c 94 e6 2e 	jmp	0x5dcc	; 0x5dcc <__bad_interrupt>
      14:	0c 94 e6 2e 	jmp	0x5dcc	; 0x5dcc <__bad_interrupt>
      18:	0c 94 e6 2e 	jmp	0x5dcc	; 0x5dcc <__bad_interrupt>
      1c:	0c 94 e6 2e 	jmp	0x5dcc	; 0x5dcc <__bad_interrupt>
      20:	0c 94 e6 2e 	jmp	0x5dcc	; 0x5dcc <__bad_interrupt>
      24:	0c 94 e6 2e 	jmp	0x5dcc	; 0x5dcc <__bad_interrupt>
      28:	0c 94 bb 31 	jmp	0x6376	; 0x6376 <__vector_10>
      2c:	0c 94 8e 31 	jmp	0x631c	; 0x631c <__vector_11>
      30:	0c 94 e6 2e 	jmp	0x5dcc	; 0x5dcc <__bad_interrupt>
      34:	0c 94 e6 2e 	jmp	0x5dcc	; 0x5dcc <__bad_interrupt>
      38:	0c 94 e6 2e 	jmp	0x5dcc	; 0x5dcc <__bad_interrupt>
      3c:	0c 94 e6 2e 	jmp	0x5dcc	; 0x5dcc <__bad_interrupt>
      40:	0c 94 e6 2e 	jmp	0x5dcc	; 0x5dcc <__bad_interrupt>
      44:	0c 94 e6 2e 	jmp	0x5dcc	; 0x5dcc <__bad_interrupt>
      48:	0c 94 e6 2e 	jmp	0x5dcc	; 0x5dcc <__bad_interrupt>
      4c:	0c 94 e6 2e 	jmp	0x5dcc	; 0x5dcc <__bad_interrupt>
      50:	0c 94 e6 2e 	jmp	0x5dcc	; 0x5dcc <__bad_interrupt>

00000054 <hello_raw>:
      54:	80 7f 7f 80 7f 7f 80 7f 7f 7f 7f 7f 7f 80 7f 7f     ................
      64:	80 7f 7f 7f 7f 7f 80 80 7f 80 7f 7f 80 80 80 80     ................
      74:	80 7e 7f 7f 7f 7f 80 80 80 80 80 7f 7f 80 80 80     .~..............
      84:	80 81 7f 7f 80 7f 80 7f 7e 80 80 81 7f 7f 80 80     ........~.......
      94:	80 81 80 7f 81 81 7f 80 7f 7e 81 81 7f 7f 81 80     .........~......
      a4:	7f 80 7f 7e 80 81 80 7f 80 80 7f 80 7f 7d 80 80     ...~.........}..
      b4:	80 80 80 7f 80 80 80 7e 7e 81 80 81 7f 7e 81 7f     .......~~....~..
      c4:	80 80 7f 80 7f 81 83 7e 7d 80 7f 7f 81 7f 7e 80     .......~}.....~.
      d4:	80 7e 80 81 7f 80 81 7f 7d 7f 82 80 7e 81 82 80     .~......}...~...
      e4:	7e 80 7f 7f 82 7f 80 80 7f 81 80 7f 80 80 81 7f     ~...............
      f4:	7f 80 7e 82 83 81 80 7e 80 7d 7d 82 82 80 81 7f     ..~....~.}}.....
     104:	7d 80 81 80 7f 80 7f 7e 7e 83 80 7e 82 7f 80 7e     }......~~..~...~
     114:	7d 82 80 80 81 7e 7f 7e 80 83 82 7f 7e 80 7d 81     }....~.~....~.}.
     124:	81 7d 83 81 7f 81 80 7d 7e 81 7f 7d 80 81 81 7f     .}.....}~..}....
     134:	83 82 7a 7f 82 7e 7d 83 82 7d 81 82 7f 7d 81 82     ..z..~}..}...}..
     144:	7c 7f 80 7c 83 84 7f 7d 7e 82 7c 7b 81 80 7f 81     |..|...}~.|{....
     154:	7f 7f 7e 7f 81 7f 7d 7f 7f 7e 80 80 80 7e 7f 7f     ..~...}..~...~..
     164:	7e 7e 80 7e 7d 81 7e 7d 7d 7e 7f 7e 7e 7e 7e 7d     ~~.~}.~}}~.~~~~}
     174:	7f 80 7d 7e 7f 7f 7f 7f 7f 7e 7e 81 7e 7e 81 80     ..}~.....~~.~~..
     184:	7f 7f 7f 7d 7e 80 80 7e 81 80 7f 80 7e 81 81 80     ...}~..~....~...
     194:	7e 7e 82 81 80 80 80 81 80 80 7f 7f 7f 82 81 7e     ~~.............~
     1a4:	7f 7f 7e 7f 80 7e 7e 7f 7f 7e 80 80 7f 7e 7c 82     ..~..~~..~...~|.
     1b4:	83 80 84 81 80 82 81 84 81 7f 82 80 80 80 7d 7b     ..............}{
     1c4:	79 7a 7a 7d 7f 7b 7b 7c 7d 7f 81 82 82 82 84 84     yzz}.{{|}.......
     1d4:	87 86 86 87 85 84 81 80 78 78 7b 75 74 72 70 72     ........xx{utrpr
     1e4:	79 82 87 85 84 80 80 83 86 89 8a 8e 8b 87 83 81     y...............
     1f4:	7a 77 7b 71 72 72 6e 70 77 82 8a 86 84 81 80 85     zw{qrrnpw.......
     204:	89 8a 8d 91 8b 87 85 81 77 78 78 70 6e 6c 6c 6f     ........wxxpnllo
     214:	7b 87 8a 87 83 7d 7f 86 8a 8c 92 94 91 8a 88 86     {....}..........
     224:	82 7a 73 69 65 6b 69 86 94 86 81 76 73 71 75 88     .zsieki....vsqu.
     234:	93 8f 8e 8e 8b 8a 8a 90 90 88 77 6a 66 62 61 76     ..........wjfbav
     244:	96 90 84 79 6f 6c 6a 76 8a 93 8d 8d 8f 8b 8b 8c     ...yoljv........
     254:	92 8e 82 72 68 65 60 63 84 9a 8c 80 73 6e 68 69     ...rhe`c....snhi
     264:	7b 8d 95 8e 8d 90 8b 8d 92 95 8d 7c 6e 69 66 6a     {..........|nifj
     274:	65 7e 9f 88 7e 76 6e 69 67 74 88 94 96 91 90 8c     e~..~vnigt......
     284:	89 8f 92 8d 82 74 6b 69 6a 62 71 9d 8e 7f 77 6b     .....tkijbq...wk
     294:	68 63 70 84 94 9a 92 8f 8e 88 8a 90 90 86 7c 6f     hcp...........|o
     2a4:	66 69 63 62 95 9c 82 7d 6d 69 64 6b 7f 90 9c 95     ficb...}midk....
     2b4:	90 8f 88 8a 8f 93 8b 7f 72 68 64 6b 5e 81 a6 8a     ........rhdk^...
     2c4:	80 70 68 66 65 77 88 9b 9d 8f 91 8a 88 8b 8d 91     .phfew..........
     2d4:	85 75 6c 65 69 5f 6c a0 95 81 76 6a 6a 64 6d 83     .ulei_l...vjjdm.
     2e4:	94 9e 94 90 8f 86 8b 8b 90 8a 7d 71 67 67 69 5d     ..........}qggi]
     2f4:	86 a2 85 82 71 69 68 63 76 8b 9c 9f 8f 93 8c 86     ....qihcv.......
     304:	89 8d 90 84 79 71 68 69 63 5a 95 9b 82 82 6d 6e     ....yqhicZ....mn
     314:	66 64 7c 90 a0 9e 92 97 8a 84 84 8a 8f 82 7a 70     fd|...........zp
     324:	68 6a 5b 61 9a 96 85 7d 6e 70 62 67 7e 97 a6 99     hj[a...}npbg~...
     334:	95 96 84 85 85 8b 8a 7e 76 6b 67 69 57 72 a2 8b     .......~vkgiWr..
     344:	88 79 6e 6f 5d 6d 85 9c a3 97 98 91 81 82 85 8e     .yno]m..........
     354:	88 7d 77 6e 69 65 54 72 9d 89 87 7b 73 70 61 6c     .}wnieTr...{spal
     364:	82 9a a2 99 9c 94 81 82 84 8b 86 7e 79 73 68 64     ...........~yshd
     374:	54 6c 9a 8c 89 7f 75 74 64 6b 83 98 a4 9b 9b 95     Tl....utdk......
     384:	82 82 84 8c 86 7d 7b 73 69 62 55 6a 9b 90 8b 84     .....}{sibUj....
     394:	77 76 66 69 7e 95 9f 9c 97 91 88 84 88 93 92 87     wvfi~...........
     3a4:	7f 79 6e 59 51 4c 67 99 a2 96 8b 7f 7d 72 64 7a     .ynYQLg.....}rdz
     3b4:	92 97 99 91 8c 8a 83 86 92 90 89 81 79 6f 59 50     ............yoYP
     3c4:	51 6c 97 9d 90 8a 83 7a 72 65 7a 91 92 93 8e 8d     Ql.....zrez.....
     3d4:	8b 82 83 8e 8d 85 7e 7b 6f 5c 54 51 68 92 9b 91     ......~{o\TQh...
     3e4:	8b 82 7d 70 65 7a 8b 8f 91 8f 8f 8c 81 84 8e 8b     ..}pez..........
     3f4:	86 80 7b 71 5c 53 51 68 91 98 90 89 84 7f 74 68     ..{q\SQh......th
     404:	77 88 8e 91 8f 8e 8c 83 84 8d 8a 84 80 7f 74 5f     w.............t_
     414:	53 52 66 8c 96 8e 8d 86 83 77 67 76 87 8a 8e 90     SRf......wgv....
     424:	92 8f 86 86 8a 88 84 80 7f 74 60 56 53 63 86 93     .........t`VSc..
     434:	8e 8e 8a 86 7a 6a 75 83 88 8e 90 93 92 87 85 89     ....zju.........
     444:	87 81 7f 80 77 64 57 54 62 86 90 8b 8f 8d 8a 7f     ....wdWTb.......
     454:	6d 75 84 87 8d 90 94 92 88 86 8a 87 81 7f 7e 79     mu............~y
     464:	65 57 55 63 86 91 8a 8c 8b 89 7e 6d 75 83 85 8b     eWUc......~mu...
     474:	8e 92 94 8a 88 8c 88 80 7e 7e 77 64 56 53 66 88     ........~~wdVSf.
     484:	8e 8a 8c 8d 8c 7e 6d 75 83 85 89 8d 93 95 8c 8b     .....~mu........
     494:	8c 88 80 7d 7d 78 66 59 56 5f 7d 8b 88 8d 8e 8c     ...}}xfYV_}.....
     4a4:	85 74 75 80 7f 85 8b 90 96 90 8e 90 89 81 7c 7b     .tu...........|{
     4b4:	77 66 58 54 5e 7d 89 86 89 8c 8e 88 76 74 7f 7f     wfXT^}......vt..
     4c4:	82 86 8c 94 92 8e 90 8d 83 7d 7a 7a 6d 5b 53 58     .........}zzm[SX
     4d4:	73 88 87 87 8b 8e 8c 7b 73 7e 81 81 83 89 93 93     s......{s~......
     4e4:	8f 92 90 87 80 7b 78 6d 5d 56 57 6a 81 84 86 8d     .....{xm]VWj....
     4f4:	91 91 85 79 7f 7f 7d 82 85 8e 92 90 95 94 8d 86     ...y..}.........
     504:	7e 7a 6f 5d 54 54 65 7a 7f 83 8b 91 94 8a 7e 81     ~zo]TTez......~.
     514:	80 7d 7e 80 89 8f 8f 94 95 91 8b 81 7c 70 5f 53     .}~.........|p_S
     524:	52 62 75 79 7e 8a 92 97 8d 84 85 83 7e 7c 7d 85     Rbuy~.......~|}.
     534:	8b 8c 92 95 93 8e 85 7f 73 61 54 53 62 71 74 7a     ........saTSbqtz
     544:	86 92 98 8f 87 88 85 80 7c 7d 85 8a 8c 92 95 93     ........|}......
     554:	8e 87 7f 73 61 54 54 62 70 74 7a 86 92 97 8f 88     ...saTTbptz.....
     564:	8a 87 81 7d 7d 84 88 8a 90 94 94 8e 87 80 73 63     ...}}.........sc
     574:	56 57 64 6d 70 77 84 91 96 8e 8b 8d 8a 84 7f 7f     VWdmpw..........
     584:	85 88 89 8e 92 92 8d 86 7e 70 60 57 5e 6a 6d 70     ........~p`W^jmp
     594:	79 87 94 92 8c 8d 8d 8a 84 80 84 88 89 8b 8f 92     y...............
     5a4:	90 8b 84 7a 6c 5e 59 62 6b 6b 70 7a 89 93 8f 8c     ...zl^Ybkkpz....
     5b4:	8f 8d 89 83 80 86 88 89 8c 90 92 8e 88 82 76 67     ..............vg
     5c4:	5b 5c 67 6b 6c 73 7f 8d 92 8c 8d 8f 8c 88 81 82     [\gkls..........
     5d4:	88 89 89 8d 90 90 8b 84 7c 6d 60 5b 63 6a 6a 6e     ........|m`[cjjn
     5e4:	77 85 8f 8d 8a 8e 8f 8c 86 83 87 8a 8b 8c 8f 90     w...............
     5f4:	8e 86 7f 73 65 5b 5f 67 6a 6c 72 7e 8c 8f 8b 8d     ...se[_gjlr~....
     604:	8f 8e 88 83 85 89 8a 8b 8e 90 8f 8a 82 77 6a 5e     .............wj^
     614:	5e 66 68 6a 6e 7a 89 8e 8b 8e 90 8f 8b 84 85 89     ^fhjnz..........
     624:	8a 8b 8e 90 90 8a 83 77 69 5d 5e 66 68 6a 6d 79     .......wi]^fhjmy
     634:	88 8e 8b 8d 90 91 8d 85 85 89 89 8a 8c 8e 90 8b     ................
     644:	84 7a 6c 60 5f 66 67 68 6a 75 84 8a 89 8c 90 91     .zl`_fghju......
     654:	8e 87 87 8a 8a 8a 8b 8d 8f 8b 85 7b 6e 62 61 67     ...........{nbag
     664:	68 68 6a 73 81 89 88 8b 8f 92 90 89 88 8a 8a 8b     hhjs............
     674:	8c 8d 8f 8b 86 7c 71 65 63 69 69 68 6a 71 7f 87     .....|qeciihjq..
     684:	87 8a 8f 92 91 8c 89 8a 8a 8b 8c 8c 8d 8b 85 7d     ...............}
     694:	71 66 64 6a 6a 68 69 71 7d 85 86 89 8e 91 91 8c     qfdjjhiq}.......
     6a4:	89 8a 8b 8a 8a 8b 8d 8c 88 81 75 69 65 69 6a 68     ..........uieijh
     6b4:	68 6d 79 84 86 87 8d 92 93 8e 89 8b 8c 8b 8b 8b     hmy.............
     6c4:	8e 8c 87 80 75 69 65 69 6a 68 68 6d 79 82 84 87     ....uieijhhmy...
     6d4:	8d 91 92 8d 89 8b 8c 8b 8a 8b 8d 8b 86 7e 74 69     .............~ti
     6e4:	66 6b 6a 68 67 6c 7a 81 83 87 8c 90 91 8b 8a 8b     fkjhglz.........
     6f4:	8b 8a 8a 8a 8c 8a 84 7c 71 68 68 6c 6a 68 68 6f     .......|qhhljhho
     704:	7b 81 83 87 8d 91 90 8b 89 8c 8c 8b 8a 8a 8c 8a     {...............
     714:	84 7d 72 68 68 6c 6a 69 69 6f 7b 81 82 86 8c 90     .}rhhljiio{.....
     724:	91 8b 8a 8d 8c 8b 8a 8b 8c 89 83 7b 6f 68 69 6c     ...........{ohil
     734:	6a 69 69 72 7c 80 82 87 8e 91 8f 8b 8a 8d 8d 8c     jiir|...........
     744:	8b 8b 8b 88 82 78 6e 68 6d 6f 6b 6a 6b 75 7f 81     .....xnhmokjku..
     754:	82 88 8e 90 8e 89 8b 8e 8e 8e 8b 8c 8b 86 7e 74     ..............~t
     764:	68 65 6f 70 6d 6d 70 7d 85 82 82 86 8b 8e 8a 87     heopmmp}........
     774:	8b 8f 91 8f 8c 8d 8c 86 7d 72 65 63 6e 6f 6c 6a     ........}recnolj
     784:	70 80 88 82 80 85 89 89 81 80 87 8d 91 92 92 93     p...............
     794:	8d 85 76 65 58 59 6c 76 79 7f 86 91 92 81 78 79     ..veXYlvy.....xy
     7a4:	7b 7c 77 7d 8c 96 9b 9b 97 95 89 7c 6c 59 4d 54     {|w}.......|lYMT
     7b4:	6f 80 85 88 8e 96 92 7b 71 73 78 7b 79 83 93 99     o......{qsx{y...
     7c4:	9b 97 93 8f 81 75 65 54 4d 5d 7e 8c 8e 8e 92 96     .....ueTM]~.....
     7d4:	86 6d 68 70 7b 81 81 8f 9b 99 95 8d 89 83 78 6f     .mhp{.........xo
     7e4:	61 54 53 6f 8d 92 8f 89 8e 8e 77 67 6c 76 83 85     aTSo......wglv..
     7f4:	88 95 98 94 91 8a 88 81 77 6e 5f 55 5b 7c 91 92     ........wn_U[|..
     804:	8e 8a 8f 86 6d 65 70 7e 89 89 90 9a 97 8f 86 82     ....mep~........
     814:	82 7d 78 6f 60 56 62 87 95 8e 88 86 8a 7d 68 6a     .}xo`Vb......}hj
     824:	7b 89 8d 8a 90 95 8d 87 83 85 85 80 7d 70 5f 53     {...........}p_S
     834:	63 8a 92 8b 85 86 8d 7c 68 6f 7f 8b 8a 87 91 93     c......|ho......
     844:	8b 85 84 88 86 7f 7b 6b 59 51 66 8d 92 8b 87 89     ......{kYQf.....
     854:	8d 78 66 70 81 8b 89 86 90 93 8b 85 84 8a 88 80     .xfp............
     864:	7b 6b 5a 51 66 8d 92 8b 86 88 8d 78 65 72 83 8c     {kZQf......xer..
     874:	88 85 90 91 8a 85 87 8b 88 80 7a 69 58 50 6a 8f     ..........ziXPj.
     884:	91 8b 86 8a 8c 75 65 73 84 8b 87 86 91 91 88 86     .....ues........
     894:	88 8a 86 7e 78 67 55 50 6b 91 93 8b 87 8a 8c 74     ...~xgUPk......t
     8a4:	65 75 85 8c 88 87 92 92 88 87 8a 8c 86 7f 7a 68     eu............zh
     8b4:	56 51 6b 92 95 8d 88 89 8a 75 65 71 83 8b 89 87     VQk......ueq....
     8c4:	8f 93 8a 85 88 8b 88 7f 7b 6f 5b 50 5e 88 96 8d     ........{o[P^...
     8d4:	88 86 8b 7c 66 6c 80 8a 8b 88 8f 94 8c 86 87 8a     ...|fl..........
     8e4:	88 7f 7b 71 5e 51 5b 83 97 8f 88 89 8b 7e 69 6b     ..{q^Q[......~ik
     8f4:	80 8a 8a 87 8e 94 8c 88 88 8a 89 81 7b 72 5e 55     ............{r^U
     904:	57 78 96 90 8a 87 8b 84 6f 68 7a 87 8b 8a 8b 95     Wx......ohz.....
     914:	8f 88 89 88 88 82 7c 77 64 54 51 6a 90 93 8c 87     ......|wdTQj....
     924:	8a 88 75 67 74 85 8b 89 8a 94 92 8b 89 89 8a 84     ..ugt...........
     934:	7e 7c 6b 5a 51 5c 87 95 8e 88 87 8c 7e 6a 6c 80     ~|kZQ\......~jl.
     944:	8b 8b 87 90 93 8d 88 85 8b 88 80 7e 77 63 57 51     ...........~wcWQ
     954:	6d 91 90 8b 88 8a 88 74 69 77 88 8c 8a 8d 94 91     m......tiw......
     964:	89 88 89 8a 82 7b 7a 6e 5c 51 57 7f 96 8e 88 87     .....{zn\QW.....
     974:	8c 82 6c 6b 80 8b 8b 8a 8f 97 8f 86 85 8b 88 7e     ..lk...........~
     984:	7d 7a 6b 5a 51 5b 86 93 8c 8a 8c 8e 7f 6c 6a 81     }zkZQ[.......lj.
     994:	8a 8a 8b 92 96 8e 8a 85 8d 88 7c 7c 7a 6c 5a 51     ..........||zlZQ
     9a4:	5b 85 93 8a 89 8c 8d 81 6a 6f 82 88 87 89 93 97     [.......jo......
     9b4:	8e 87 8a 8c 86 7a 7c 79 6c 5a 51 5c 83 91 8a 8d     .....z|ylZQ\....
     9c4:	8d 8f 7e 6a 6d 83 87 85 89 93 98 8f 86 89 8d 85     ..~jm...........
     9d4:	7d 7c 7b 6d 5b 53 57 79 92 8a 8c 8f 8f 85 6c 68     }|{m[SWy......lh
     9e4:	7d 85 87 8c 93 9a 92 87 8b 8c 87 7e 7e 7f 75 61     }..........~~.ua
     9f4:	55 56 65 89 8d 8c 91 8e 89 7c 6d 70 80 85 88 8d     UVe......|mp....
     a04:	95 96 8e 87 8a 89 83 7b 7d 7e 76 62 55 57 66 86     .......{}~vbUWf.
     a14:	8e 8c 8f 8e 88 7b 6d 75 80 85 8a 90 95 93 8c 89     .....{mu........
     a24:	8a 86 7e 7d 7f 7c 6f 5b 58 56 68 8a 8d 8f 92 8b     ..~}.|o[XVh.....
     a34:	87 79 6e 76 81 88 8f 93 94 92 8b 88 87 81 7d 7f     .ynv..........}.
     a44:	7e 7a 6c 5d 59 55 65 86 90 94 92 8c 8b 7e 70 73     ~zl]YUe......~ps
     a54:	7e 8a 8f 91 95 94 90 89 87 81 7e 7d 7c 79 72 66     ~.........~}|yrf
     a64:	5b 57 57 7c 93 8f 95 8e 89 86 78 71 79 84 8a 8e     [WW|......xqy...
     a74:	91 94 90 8c 8a 84 80 7d 7b 7e 7a 6e 62 59 54 64     .......}{~znbYTd
     a84:	87 8e 8f 92 8e 8b 7d 75 75 7e 88 8b 8d 94 95 8f     ......}uu~......
     a94:	8c 88 81 7e 7b 7a 7c 74 6d 61 5b 54 63 8a 91 94     ...~{z|tma[Tc...
     aa4:	91 8a 8e 84 74 71 78 88 8d 8b 8f 94 92 8e 83 7f     ....tqx.........
     ab4:	7d 79 78 77 76 74 64 5b 56 5d 87 93 94 92 8d 90     }yxwvtd[V]......
     ac4:	86 74 6b 77 88 8e 8d 96 97 94 8c 82 7e 7c 77 78     .tkw........~|wx
     ad4:	77 79 78 71 66 5c 55 67 91 97 96 94 92 92 82 67     wyxqf\Ug.......g
     ae4:	66 78 89 8c 8e 9a 9a 95 89 82 7d 7a 78 78 7a 79     fx........}zxxzy
     af4:	77 71 64 5d 54 68 92 9a 95 92 91 93 82 68 6a 7b     wqd]Th.......hj{
     b04:	89 89 8c 9b 9f 94 84 7d 7a 76 70 76 7d 80 7b 74     .......}zvpv}.{t
     b14:	6e 62 57 5c 86 9f 95 96 97 97 89 68 61 73 85 8b     nbW\.......has..
     b24:	8f 9a a3 95 82 78 77 74 72 77 7f 83 80 7e 7b 6e     .....xwtrw...~{n
     b34:	58 53 58 8a a3 93 99 9b 98 85 69 61 73 85 8b 8c     XSX.......ias...
     b44:	99 9f 8e 7a 75 71 72 74 7d 89 89 85 7f 7b 72 5e     ...zuqrt}....{r^
     b54:	58 51 65 99 a0 9e 9d 98 8e 77 62 69 79 87 8f 90     XQe......wbiy...
     b64:	9c 99 8c 7b 74 73 76 77 7e 87 87 83 81 7d 79 66     ...{tsvw~....}yf
     b74:	57 57 5c 8d a2 98 9b 93 91 83 64 68 78 82 91 8e     WW\.......dhx...
     b84:	96 9d 86 7b 76 71 75 7a 84 8b 85 85 80 7c 77 6c     ...{vquz.....|wl
     b94:	62 5e 62 6a 96 9f 9a 9f 8b 84 78 67 70 7a 87 92     b^bj......xgpz..
     ba4:	92 95 8e 7f 7d 79 75 7e 82 88 8b 88 7e 79 78 79     ....}yu~....~yxy
     bb4:	72 6f 63 6b 5f 6f a0 97 9b 90 81 8b 7c 60 73 7c     rock_o......|`s|
     bc4:	8e 94 84 92 91 80 80 7c 7e 88 7f 88 87 81 7f 7b     .......|~......{
     bd4:	7e 7f 77 78 6f 63 65 58 7d a6 98 92 8e 86 8b 70     ~.wxoceX}......p
     be4:	62 74 7e 8b 8b 87 96 95 85 83 79 7d 86 82 84 86     bt~.......y}....
     bf4:	82 84 7e 7c 7f 7b 7a 72 64 64 57 67 a1 9b 8f 93     ..~|.{zrddWg....
     c04:	89 8c 79 61 6f 7b 87 8d 86 98 9b 86 81 7d 7e 82     ..yao{.......}~.
     c14:	7e 83 8a 82 85 83 7e 81 7b 7b 76 6c 5c 5e 59 84     ~.....~.{{vl\^Y.
     c24:	a9 90 97 92 85 81 6a 63 7a 7c 83 92 92 9c 96 81     ......jcz|......
     c34:	85 7f 75 7c 7d 84 8a 88 86 86 7e 7d 7a 76 76 75     ..u|}.....~}zvvu
     c44:	68 5f 6a 65 87 9e 8d 92 8d 83 84 6d 69 7e 7c 87     h_je.......mi~|.
     c54:	91 93 9d 92 84 80 7a 7a 7b 7c 8a 8f 84 88 83 7d     ......zz{|.....}
     c64:	77 73 75 78 7d 74 6e 65 73 60 6f 9e 8f 8d 8f 86     wsux}tnes`o.....
     c74:	8d 7f 67 76 7f 82 88 89 96 9b 8a 82 82 79 7b 79     ..gv.........y{y
     c84:	7c 87 88 83 85 85 7d 79 74 73 7a 7a 72 6b 68 71     |.....}ytszzrkhq
     c94:	5e 6f 9f 93 8e 8c 83 8c 7e 63 72 80 82 8d 88 96     ^o......~cr.....
     ca4:	9a 84 7f 7d 7b 7f 7c 7f 8a 84 81 85 80 7c 7b 71     ...}{.|......|{q
     cb4:	79 7f 75 7a 79 70 69 5b 55 8a 99 8a 95 8f 94 8d     y.uzypi[U.......
     cc4:	67 67 7c 76 7b 7f 8b a3 97 83 88 7d 77 7b 78 82     gg|v{......}w{x.
     cd4:	89 87 88 88 81 7d 77 75 7b 80 7e 81 80 79 63 5e     .....}wu{.~..yc^
     ce4:	56 66 94 8e 90 9d 94 8a 7e 65 68 74 72 7c 8a 96     Vf......~ehtr|..
     cf4:	a0 95 85 84 80 77 76 7a 83 89 87 87 87 84 80 7b     .....wvz.......{
     d04:	74 7a 81 7c 81 82 7d 6b 5e 5b 5c 89 95 8f 9b 9a     tz.|..}k^[\.....
     d14:	90 81 69 64 71 74 7c 87 92 98 96 8a 87 80 77 74     ..idqt|.......wt
     d24:	77 82 89 87 87 89 87 80 76 72 7d 7c 7b 7f 84 86     w.......vr}|{...
     d34:	74 5e 63 63 59 8f 95 91 a4 91 85 87 65 61 76 6f     t^ccY.......eavo
     d44:	82 89 8e 9a 97 87 87 7a 71 7a 79 83 8a 84 8a 8d     .......zqzy.....
     d54:	80 7d 7a 76 7b 7e 79 86 89 85 76 6c 62 67 5e 6a     .}zv{~y...vlbg^j
     d64:	98 95 9b 99 8a 88 7b 62 68 76 7a 82 88 8f 96 89     ......{bhvz.....
     d74:	85 86 7c 7a 7c 78 82 86 83 8a 85 82 83 79 76 80     ..|z|x.......yv.
     d84:	7a 7f 81 83 88 7d 70 73 69 67 5d 71 a0 94 8c 93     z....}psig]q....
     d94:	8c 86 7d 61 6c 7c 77 7f 8b 8e 96 8d 86 8a 7e 77     ..}al|w.......~w
     da4:	77 78 7f 83 81 88 8a 85 86 7e 7a 81 79 7c 7f 87     wx.......~z.y|..
     db4:	83 81 77 77 6b 63 64 6a 94 93 86 90 95 87 84 6a     ..wwkcdj.......j
     dc4:	68 79 74 76 87 90 93 94 88 8a 87 7c 74 76 75 7e     hytv.......|tvu~
     dd4:	82 82 88 8b 86 83 7f 7a 7f 7a 7b 80 85 82 80 77     .......z.z{....w
     de4:	7c 70 64 68 6b 92 96 85 92 96 86 7f 6e 67 7a 78     |pdhk.......ngzx
     df4:	76 88 8e 91 96 8c 85 87 79 74 74 75 7d 81 81 8b     v.......yttu}...
     e04:	8c 86 85 80 7d 7a 78 78 85 84 84 83 84 81 7c 6b     ....}zxx......|k
     e14:	67 67 69 8b 8e 8d 94 94 89 82 73 6e 75 76 78 86     ggi.......snuvx.
     e24:	8e 94 96 8a 8a 85 78 6f 74 75 77 7e 86 8d 90 8c     ......xotuw~....
     e34:	83 7e 7c 76 76 77 84 87 85 88 89 85 7a 6e 63 68     .~|vvw......znch
     e44:	63 76 92 94 94 99 91 86 80 6d 69 76 75 79 8a 92     cv.......mivuy..
     e54:	95 94 8c 84 82 78 6e 72 75 79 80 88 8d 8f 8b 81     .....xnruy......
     e64:	7f 7d 72 77 7a 84 89 85 88 8b 87 78 6e 61 65 60     .}rwz......xnae`
     e74:	73 91 93 94 99 93 87 7f 69 6a 75 74 79 8a 90 95     s.......ijuty...
     e84:	94 89 84 84 77 6d 72 74 7a 81 88 8c 8d 8b 81 7d     ....wmrtz......}
     e94:	7a 74 75 7b 85 88 89 89 8a 85 77 6e 64 66 60 69     ztu{......wndf`i
     ea4:	8e 96 8e 97 98 88 82 6e 63 71 74 6f 81 95 95 9a     .......ncqto....
     eb4:	95 8a 85 7d 6d 6e 74 75 7d 86 88 8e 8c 83 7e 82     ...}mntu}.....~.
     ec4:	78 71 7a 82 86 85 88 88 88 7a 6f 68 6b 67 60 82     xqz......zohkg`.
     ed4:	97 8f 8f 96 8c 87 79 64 6e 76 6e 77 8c 93 97 97     ......ydnvnw....
     ee4:	8e 88 83 77 71 72 72 76 7f 84 8a 8d 8a 84 84 7f     ...wqrrv........
     ef4:	78 77 7e 83 82 83 88 87 81 77 71 6d 6d 65 61 89     xw~......wqmmea.
     f04:	91 85 8d 95 8d 86 79 6b 75 78 6f 77 8c 8f 92 94     ......ykuxow....
     f14:	90 8d 84 7a 76 73 71 73 7a 80 86 88 88 85 87 82     ...zvsqsz.......
     f24:	7a 7b 7f 7f 7d 7f 83 82 7e 78 72 72 6f 63 67 8d     z{..}...~xrrocg.
     f34:	88 81 8b 94 89 84 79 71 7a 75 6d 77 8a 88 8f 91     ......yqzumw....
     f44:	91 8c 85 7b 79 76 71 73 7b 7e 82 85 86 84 86 82     ...{yvqs{~......
     f54:	7d 7c 7e 81 7e 80 82 83 7d 78 72 72 71 65 69 8c     }|~.~...}xrrqei.
     f64:	88 80 89 93 8a 84 79 71 7b 76 6f 79 8b 87 8c 8f     ......yq{voy....
     f74:	91 8a 85 7b 7b 76 71 72 7a 7d 7f 84 85 86 87 83     ...{{vqrz}......
     f84:	7e 82 81 7f 7c 7f 80 82 7a 7a 75 75 70 6c 66 83     ~...|...zzuuplf.
     f94:	8d 7c 83 93 8e 7f 80 76 7b 78 75 74 87 87 85 8e     .|.....v{xut....
     fa4:	91 89 86 85 7d 7b 73 73 75 7c 77 7f 84 84 86 89     ....}{ssu|w.....
     fb4:	83 83 85 85 7d 7f 80 7e 7d 79 78 75 75 70 6d 71     ....}..~}yxuupmq
     fc4:	8d 83 7d 88 93 84 7f 82 7a 7c 7a 79 7b 89 85 88     ..}.....z|zy{...
     fd4:	8d 90 87 87 86 81 7a 77 79 78 7b 7a 80 83 85 87     ......zwyx{z....
     fe4:	89 86 86 87 85 7e 80 7f 7b 78 7a 74 73 74 73 6c     .....~..{xztstsl
     ff4:	83 8d 7c 84 8f 8c 7c 83 7d 7c 7a 7b 79 83 87 84     ..|...|.}|z{y...
    1004:	8a 8e 90 86 88 83 81 78 78 78 7a 79 7c 80 83 85     .......xxxzy|...
    1014:	87 88 87 87 87 86 7f 81 7f 7d 79 7a 75 74 73 74     .........}yzutst
    1024:	6d 84 8c 7d 82 90 8d 7c 84 7d 7b 79 7a 78 83 86     m..}...|.}{yzx..
    1034:	83 89 8f 8e 85 88 83 80 78 7a 77 7a 78 79 7f 81     ........xzwzxy..
    1044:	85 86 88 86 8a 88 82 7f 82 7d 78 7a 7a 75 74 73     .........}xzzuts
    1054:	74 70 78 8a 80 7c 89 8e 81 7f 82 7d 7c 7c 7a 7b     tpx..|.....}||z{
    1064:	86 84 82 8a 91 87 86 89 84 7f 7a 7a 78 78 76 7a     ..........zzxxvz
    1074:	7d 80 86 87 88 8a 8c 87 82 84 7e 7b 77 79 75 73     }.........~{wyus
    1084:	74 74 71 72 88 85 7c 84 91 85 7e 83 7f 7b 7a 7b     ttqr..|...~..{z{
    1094:	78 83 83 82 88 8f 8a 84 8c 88 81 7c 7b 79 78 77     x..........|{yxw
    10a4:	77 7d 7e 82 85 88 87 8d 8b 83 85 82 7e 78 79 77     w}~.........~xyw
    10b4:	75 74 72 74 76 75 83 86 7d 83 8d 87 7d 82 81 7e     utrtvu..}...}..~
    10c4:	7a 7c 7b 82 82 81 87 8d 8a 85 8b 89 83 7b 7e 7b     z|{..........{~{
    10d4:	77 75 78 79 7b 81 83 87 89 8e 8a 87 86 82 7d 78     wuxy{.........}x
    10e4:	77 75 71 70 71 73 70 7b 87 81 80 8b 8e 83 83 85     wuqpqsp{........
    10f4:	80 7b 7c 7b 7b 81 80 81 87 8d 89 87 8b 8a 81 7d     .{|{{..........}
    1104:	7e 7a 76 74 77 79 7b 81 82 87 8a 8d 8a 87 86 82     ~zvtwy{.........
    1114:	7e 78 77 75 71 70 71 73 70 7a 87 82 80 8a 8f 83     ~xwuqpqspz......
    1124:	81 85 80 7c 7c 7a 7c 81 80 81 87 8d 87 88 8c 89     ...||z|.........
    1134:	80 7d 7f 79 75 74 78 78 7c 80 82 86 8b 8e 89 87     .}.yutxx|.......
    1144:	87 83 7c 79 79 74 71 70 70 71 71 7c 84 80 81 8b     ..|yytqppqq|....
    1154:	8c 85 84 85 82 7e 7c 7a 7c 7f 7f 81 87 8b 87 89     .....~|z|.......
    1164:	8c 89 83 81 7f 7a 77 76 77 77 7b 7e 82 86 8a 8d     .....zwvww{~....
    1174:	8a 89 88 85 7f 7a 79 74 70 6e 6f 6f 71 7e 81 7e     .....zytpnooq~.~
    1184:	83 8e 8c 86 87 86 84 7f 7d 7a 7e 7e 7d 80 88 89     ........}z~~}...
    1194:	88 8a 8b 8a 84 81 7f 7b 77 75 76 77 7a 7c 80 85     .......{wuvwz|..
    11a4:	8a 8b 88 89 89 85 7c 7b 77 72 6e 6d 6b 6f 7c 7a     ......|{wrnmko|z
    11b4:	7b 83 8e 89 88 8a 89 85 80 7f 7b 7d 7c 7d 7d 84     {.........{}|}}.
    11c4:	86 86 88 8a 89 85 82 80 7d 78 76 75 76 79 7c 7e     ........}xvuvy|~
    11d4:	83 87 8b 88 89 88 86 7f 7b 79 73 70 6c 6d 6c 79     ........{ysplmly
    11e4:	7b 7a 7f 8b 8c 86 8a 8a 88 80 81 7c 7d 7c 7c 7c     {z.........|}|||
    11f4:	82 85 84 88 89 8a 86 85 82 7f 7b 78 77 76 78 79     ..........{xwvxy
    1204:	7c 80 86 88 88 89 8b 88 83 7f 7c 77 72 6d 6d 6a     |.........|wrmmj
    1214:	6e 77 79 79 81 8a 8a 88 8a 8b 88 84 80 7e 7e 7d     nwyy.........~~}
    1224:	7b 7c 82 84 82 85 89 88 84 83 82 7f 7c 79 77 78     {|..........|ywx
    1234:	7a 7a 7c 80 85 87 86 88 89 87 80 7d 7a 77 71 6e     zz|........}zwqn
    1244:	6c 70 76 75 76 7f 88 85 86 8a 8b 89 86 83 81 81     lpvuv...........
    1254:	80 7d 7e 83 83 83 84 87 86 85 84 82 81 7e 7b 7a     .}~..........~{z
    1264:	7a 7b 7b 7c 7f 83 84 84 85 87 86 81 7f 7b 79 75     z{{|.........{yu
    1274:	71 6d 72 77 75 76 7d 85 85 87 88 8b 8a 89 84 83     qmrwuv}.........
    1284:	84 82 7f 7f 83 82 83 83 86 85 84 83 82 81 7e 7c     ..............~|
    1294:	7a 7c 7c 7b 7d 80 83 83 84 85 86 84 80 7d 7b 79     z||{}........}{y
    12a4:	74 70 6f 76 77 76 78 80 85 85 87 88 8a 89 88 83     tpovwvx.........
    12b4:	84 83 82 7f 80 82 82 83 83 84 84 84 82 81 80 7f     ................
    12c4:	7c 7b 7c 7d 7c 7c 7f 82 82 82 83 84 83 80 7c 7a     |{|}||........|z
    12d4:	79 75 70 70 76 77 76 78 80 82 85 85 86 89 89 87     yuppvwvx........
    12e4:	83 84 85 84 80 81 82 83 82 82 82 83 83 81 80 7f     ................
    12f4:	7f 7c 7c 7c 7d 7d 7e 80 82 82 82 82 82 81 7f 7c     .|||}}~........|
    1304:	7a 78 75 71 71 75 76 76 78 7e 81 83 84 85 87 88     zxuqquvvx~......
    1314:	87 83 84 85 84 81 82 82 83 82 82 81 82 82 80 7f     ................
    1324:	7e 7e 7c 7c 7c 7c 7d 7d 7f 81 82 82 82 82 81 80     ~~||||}}........
    1334:	7d 7c 7a 77 74 72 73 76 76 76 79 7e 80 81 83 85     }|zwtrsvvvy~....
    1344:	87 88 86 85 86 86 84 83 83 83 83 82 82 82 82 81     ................
    1354:	80 7f 7f 7e 7c 7c 7c 7d 7d 7f 80 81 81 82 82 81     ...~|||}}.......
    1364:	7f 7e 7c 7a 78 75 73 73 76 77 76 78 7c 80 81 82     .~|zxussvwvx|...
    1374:	84 86 87 86 85 85 85 85 83 83 83 83 82 81 82 82     ................
    1384:	82 80 7f 7f 7f 7d 7c 7d 7d 7e 7e 7f 80 81 82 82     .....}|}}~~.....
    1394:	81 80 7f 7e 7c 7a 78 76 75 76 77 77 78 7a 7d 7f     ...~|zxvuvwwxz}.
    13a4:	81 82 84 86 86 85 86 86 85 84 84 83 83 83 83 82     ................
    13b4:	81 81 81 7f 7f 7e 7e 7d 7d 7d 7d 7e 7f 80 80 81     .....~~}}}}~....
    13c4:	81 81 81 7f 7e 7e 7c 7a 78 77 76 75 75 76 77 79     ....~~|zxwvuuvwy
    13d4:	7a 7c 7e 80 82 83 84 85 86 86 86 85 85 85 84 83     z|~.............
    13e4:	84 84 83 82 82 81 80 7f 7f 7e 7e 7e 7e 7e 7f 80     .........~~~~~..
    13f4:	80 80 81 81 81 80 7f 7e 7d 7c 7a 79 77 75 75 75     .......~}|zywuuu
    1404:	75 76 78 79 7b 7d 7f 81 82 84 84 85 85 85 85 85     uvxy{}..........
    1414:	84 84 84 83 83 83 82 81 81 81 80 7f 7f 7e 7e 7e     .............~~~
    1424:	7e 7f 7f 80 81 81 82 82 82 81 80 7f 7e 7d 7b 7a     ~...........~}{z
    1434:	78 77 77 77 77 78 7a 7b 7d 7f 80 82 84 85 85 86     xwwwwxz{}.......
    1444:	86 86 86 85 85 85 84 84 83 83 82 82 81 80 80 7f     ................
    1454:	7f 7f 7f 7f 80 80 80 81 82 82 82 82 81 81 80 7f     ................
    1464:	7e 7d 7b 7a 79 78 77 78 78 79 7b 7c 7c 7e 80 81     ~}{zyxwxxy{||~..
    1474:	83 83 84 85 86 85 85 85 85 85 84 83 83 83 82 81     ................
    1484:	81 80 80 7f 7f 7f 7f 7f 80 80 80 81 81 81 81 81     ................
    1494:	81 80 7f 7e 7d 7d 7b 7a 79 79 78 78 78 79 7a 7b     ...~}}{zyyxxxyz{
    14a4:	7c 7d 7f 80 81 82 84 84 85 85 85 85 85 85 85 84     |}..............
    14b4:	83 82 82 82 81 80 80 80 80 80 80 81 81 81 81 82     ................
    14c4:	82 82 82 82 81 81 80 7f 7e 7d 7d 7c 7b 7a 7a 7a     ........~}}|{zzz
    14d4:	7a 7a 7a 7b 7c 7d 7e 7f 81 82 82 83 84 84 85 85     zzz{|}~.........
    14e4:	85 85 84 84 83 83 82 82 81 81 81 80 80 80 80 80     ................
    14f4:	81 81 81 81 81 81 81 81 81 80 7f 7f 7f 7d 7d 7d     .............}}}
    1504:	7c 7b 7b 7b 7a 7b 7b 7b 7c 7d 7d 7e 7f 80 81 82     |{{{z{{{|}}~....
    1514:	83 83 83 84 84 84 84 83 83 82 82 82 82 81 81 81     ................
    1524:	81 81 80 80 80 81 81 80 80 81 80 80 80 7f 7f 7f     ................
    1534:	7e 7e 7d 7d 7d 7c 7c 7b 7b 7b 7b 7b 7b 7c 7d 7e     ~~}}}||{{{{{{|}~
    1544:	7e 7f 80 81 82 82 82 82 83 83 83 83 82 82 82 81     ~...............
    1554:	81 81 81 80 80 80 80 80 80 80 80 80 80 80 80 7f     ................
    1564:	7f 7f 7f 7f 7e 7e 7d 7d 7d 7c 7c 7c 7c 7c 7c 7c     ....~~}}}|||||||
    1574:	7d 7d 7d 7e 7f 80 80 80 81 81 81 81 81 81 81 81     }}}~............
    1584:	81 81 81 81 80 80 80 7f 7f 7f 7f 80 7f 7f 7f 7f     ................
    1594:	7f 7f 7f 7f 7f 7f 7f 7e 7e 7d 7d 7d 7d 7d 7d 7d     .......~~}}}}}}}
    15a4:	7d 7d 7d 7d 7e 7e 7e 7f 7f 80 80 80 81 81 81 81     }}}}~~~.........
    15b4:	81 81 81 81 81 80 80 80 80 7f 7f 7f 7f 7f 7f 80     ................
    15c4:	80 80 80 80 7f 7f 7f 7f 7f 7e 7e 7e 7e 7e 7e 7d     .........~~~~~~}
    15d4:	7d 7e 7e 7e 7e 7e 7e 7f 7f 7f 7f 7f 80 80 80 80     }~~~~~~.........
    15e4:	80 80 80 80 80 80 80 80 80 7f 7f 7f 7f 7f 7f 7f     ................
    15f4:	7e 7f 7e 7f 7f 7e 7e 7e 7e 7e 7e 7e 7e 7e 7e 7e     ~.~..~~~~~~~~~~~
    1604:	7e 7e 7e 7e 7e 7e 7e 7e 7e 7e 7f 7f 7f 7f 7f 7f     ~~~~~~~~~~......
    1614:	80 80 80 80 80 80 80 80 7f 7f 7f 7f 7f 7f 7f 7f     ................
    1624:	7f 7f 7f 7f 7e 7e 7e 7e 7e 7e 7e 7e 7e 7e 7e 7e     ....~~~~~~~~~~~~
    1634:	7e 7f 7f 7f 7f 7f 7f 7f 7f 7f 7f 7f 7f 80 80 80     ~...............
    1644:	80 80 80 80 80 80 80 80 80 80 80 80 80 80 80 80     ................
    1654:	80 7f 7f 7f 7f 7f 7f 7f 7f 7e 7f 7f 7e 7f 7f 7f     .........~..~...
    1664:	7f 7f 7f 7f 7f 7f 7f 7f 7f 7f 7f 7f 7f 7f 80 7f     ................
    1674:	7f 7f                                               ..

00001676 <help_raw>:
    1676:	80 80 81 81 80 80 80 80 80 80 7e 7d 7f 80 7e 80     ..........~}..~.
    1686:	7e 7f 80 7f 7f 7f 81 82 80 82 82 7d 7e 7f 82 80     ~..........}~...
    1696:	80 7f 80 7f 7f 7f 7f 82 7e 80 7f 7e 7f 81 83 7f     ........~..~....
    16a6:	7d 7f 7f 80 7e 7e 80 7f 80 81 7e 7e 81 7e 80 7f     }...~~....~~.~..
    16b6:	7e 7f 80 81 7f 7e 7f 80 7f 7f 80 7e 7f 7e 7e 7e     ~....~.....~.~~~
    16c6:	7d 7f 7f 7f 7f 80 7e 7e 80 7e 7e 81 80 7b 7c 7e     }.....~~.~~..{|~
    16d6:	80 81 7e 81 82 7d 7b 80 82 7e 7e 7e 80 7f 7d 81     ..~..}{..~~~..}.
    16e6:	81 81 80 7f 81 7e 82 80 7d 83 83 7e 7d 80 7f 80     .....~..}..~}...
    16f6:	85 81 7d 7d 7e 82 83 80 81 81 7f 80 80 7f 7f 81     ..}}~...........
    1706:	81 80 80 80 82 82 81 81 80 7f 80 81 80 81 84 80     ................
    1716:	81 81 81 81 80 82 84 7e 7d 7e 7d 82 81 7e 7f 7f     .......~}~}..~..
    1726:	7e 80 80 7d 7e 85 84 7f 7f 80 7f 82 84 81 80 80     ~..}~...........
    1736:	81 7e 80 7f 7f 82 7d 7d 81 80 7f 7f 81 82 80 82     .~....}}........
    1746:	83 83 83 83 84 81 7d 7b 7d 81 7e 7c 7b 78 7a 77     ......}{}.~|{xzw
    1756:	76 7c 7e 7e 7d 7f 85 81 80 89 87 86 89 87 86 84     v|~~}...........
    1766:	88 89 86 80 7b 7e 7c 7c 7c 71 6e 70 70 77 82 89     ....{~|||qnppw..
    1776:	83 7d 7c 7b 7d 81 89 90 8e 89 89 89 8a 8d 8b 83     .}|{}...........
    1786:	7e 78 75 73 79 7c 74 67 67 7e 84 86 84 7a 7c 7b     ~xusy|tgg~...z|{
    1796:	79 83 8c 8f 8f 8d 8d 8a 8b 8d 8a 83 7c 76 74 75     y...........|vtu
    17a6:	7c 7a 70 64 6e 81 84 87 80 7a 7c 7a 7a 85 8d 93     |zpdn....z|zz...
    17b6:	91 8b 8d 8b 8a 8e 8a 83 7c 76 73 74 7b 79 6e 61     ........|vst{yna
    17c6:	6c 80 84 87 80 78 7b 79 7a 86 8d 92 92 8e 8e 8c     l....x{yz.......
    17d6:	8a 8d 8c 87 7a 74 77 76 77 77 6d 62 6a 7d 7f 7e     ....ztwvwwmbj}.~
    17e6:	82 7e 7e 7c 76 7f 8a 92 93 8e 90 92 8a 88 8c 8a     .~~|v...........
    17f6:	80 77 75 70 6f 74 6f 64 6a 81 82 7c 7c 7b 82 80     .wupotodj..||{..
    1806:	77 7f 8a 91 94 92 93 91 89 8a 8d 88 7d 76 72 6c     w...........}vrl
    1816:	71 73 6c 61 71 85 80 7c 79 7c 83 7c 76 80 89 90     qslaq..|y|.|v...
    1826:	95 96 97 92 8b 89 8c 87 7d 74 73 74 6f 6e 66 61     ........}tstonfa
    1836:	79 88 83 78 77 7b 7f 7c 77 83 8c 90 93 97 99 95     y..xw{.|w.......
    1846:	8b 8c 8f 84 76 73 72 70 70 71 61 64 88 8f 83 7b     ....vsrppqad...{
    1856:	74 78 7d 78 7b 85 8e 94 96 96 96 90 8b 8d 8b 81     tx}x{...........
    1866:	74 72 70 69 69 6b 5e 79 9a 89 80 74 6e 79 79 79     trpiik^y...tnyyy
    1876:	83 89 90 94 95 97 98 90 8b 8d 8a 7c 72 73 6e 66     ...........|rsnf
    1886:	6b 67 60 89 97 83 7c 6e 70 7b 77 7c 88 8a 90 94     kg`...|np{w|....
    1896:	96 99 95 90 8b 8a 86 76 70 73 6a 67 68 5c 81 9f     .......vpsjgh\..
    18a6:	89 7d 75 6c 71 75 7a 87 8c 8d 8f 92 98 96 90 90     .}ulquz.........
    18b6:	89 85 7b 78 77 6b 63 63 5d 6f 9e 9b 86 78 69 6b     ..{xwkcc]o...xik
    18c6:	72 73 83 8f 90 8f 8d 92 96 94 92 91 8d 7d 71 75     rs...........}qu
    18d6:	6f 67 63 5c 63 94 a5 8c 7d 6f 6a 6d 70 7c 8e 91     ogc\c...}ojmp|..
    18e6:	90 8d 8e 93 94 93 93 90 87 77 72 74 6d 66 62 58     .........wrtmfbX
    18f6:	70 a3 9d 86 78 6b 6b 6d 71 85 90 90 90 8c 90 93     p...xkkmq.......
    1906:	8f 8f 91 8d 81 73 76 74 67 60 5f 5a 83 ab 99 87     .....svtg`_Z....
    1916:	6e 62 6d 70 72 8d 97 93 8d 85 8c 93 91 90 90 88     nbmpr...........
    1926:	81 74 77 72 63 5c 5d 5b 8a af 95 86 6d 61 6e 6e     .twrc\][....mann
    1936:	76 94 99 96 8b 81 8b 91 8e 90 91 88 79 73 7d 77     v...........ys}w
    1946:	66 56 5b 5d 74 a6 a1 8a 78 63 69 6d 70 8a 9c 98     fV[]t...xcimp...
    1956:	8f 81 88 8f 8a 8e 95 90 7e 70 72 7a 6e 63 5b 5b     ........~prznc[[
    1966:	60 89 ad 98 86 70 66 6f 6e 76 8f 9a 9a 8f 85 82     `....pfonv......
    1976:	89 8c 8b 90 92 87 77 70 77 76 6c 63 5a 5d 67 9b     ......wpwvlcZ]g.
    1986:	af 90 7e 67 67 6f 6e 83 9b a1 98 86 81 8a 8c 8d     ..~ggon.........
    1996:	93 91 88 73 70 79 7c 71 6a 5e 5c 59 71 ab a0 8a     ...spy|qj^\Yq...
    19a6:	75 67 70 70 78 8f 9f a1 8b 78 7b 84 8c 95 95 91     ugppx....x{.....
    19b6:	80 6c 6e 74 79 76 71 64 5e 50 7f ae 9a 8e 71 67     .lntyvqd^P....qg
    19c6:	76 71 78 91 a2 a4 86 74 7c 83 8b 8f 90 8e 7e 6e     vqx....t|.....~n
    19d6:	73 7c 81 81 74 6b 5d 58 52 81 b0 9f 92 73 69 7a     s|..tk]XR....siz
    19e6:	74 7a 92 9e a0 85 74 7a 84 8f 8f 8f 89 7d 6f 6e     tz....tz.....}on
    19f6:	7a 85 8c 82 72 61 5a 53 5b 9a ab 9f 8c 6c 76 7d     z...raZS[....lv}
    1a06:	77 80 8c 99 9a 86 78 77 82 8a 8f 8c 8b 85 75 6f     w.....xw......uo
    1a16:	73 82 88 88 7d 6f 5c 57 50 6d a7 a7 9b 7f 70 80     s...}o\WPm....p.
    1a26:	7a 7b 86 92 a0 8f 76 76 7d 8b 8c 89 8d 84 7a 73     z{....vv}.....zs
    1a36:	74 81 88 88 83 79 6e 5d 59 51 66 a2 aa 9e 87 75     t....yn]YQf....u
    1a46:	7e 7c 74 76 88 9f 93 7e 7a 7d 8d 8c 88 86 81 7b     ~|tv...~z}.....{
    1a56:	75 71 7f 89 8a 88 85 77 67 59 58 51 69 a4 a6 a6     uq.....wgYXQi...
    1a66:	8d 76 7c 77 71 6e 78 90 9a 91 88 83 87 85 82 7f     .v|wqnx.........
    1a76:	7c 7e 7c 81 81 82 86 88 86 7e 76 67 5c 59 58 59     |~|......~vg\YXY
    1a86:	8e b2 ae a0 7a 74 75 6c 6d 6f 82 9a 9d 94 83 7f     ....ztulmo......
    1a96:	82 7e 7e 81 80 82 7f 7d 7d 81 87 89 87 82 79 69     .~~....}}.....yi
    1aa6:	62 5a 5c 56 78 ad b4 ae 88 76 75 69 69 6c 80 9e     bZ\Vx....vuiil..
    1ab6:	a7 9b 87 7d 7c 78 7a 7c 83 8c 87 83 7e 7b 82 84     ...}|xz|....~{..
    1ac6:	83 84 81 7b 68 5c 5d 64 5e 78 ac b3 ad 86 6a 6c     ...{h\]d^x....jl
    1ad6:	6d 74 75 87 a2 a3 95 82 76 78 7b 80 88 8b 8e 88     mtu.....vx{.....
    1ae6:	7e 7b 77 7e 85 89 88 82 7a 72 64 60 63 6a 6b 6e     ~{w~....zrd`cjkn
    1af6:	98 a9 ab 91 6c 6a 6b 78 7d 80 91 9c 9a 8a 7a 7c     ....ljkx}.....z|
    1b06:	83 84 85 7d 86 88 85 84 78 7e 81 86 85 80 7c 79     ...}....x~....|y
    1b16:	74 74 6d 6c 6d 70 6d 69 8e 9a a1 91 71 77 7a 7e     ttmlmpmi....qwz~
    1b26:	7e 77 84 91 98 92 83 7d 81 86 7f 7e 7f 86 8c 84     ~w.....}...~....
    1b36:	82 79 7d 81 83 86 81 83 7e 76 71 6f 6c 6a 6d 6b     .y}.....~vqoljmk
    1b46:	62 81 9a 9f 9d 7b 71 76 7d 83 7d 80 8c 97 97 84     b....{qv}.}.....
    1b56:	7c 82 8a 8a 7f 78 7f 89 8b 82 7d 7f 89 8b 84 82     |....x....}.....
    1b66:	7d 79 75 78 76 79 77 73 71 70 60 6e 8e 9e a6 8a     }yuxvywsqp`n....
    1b76:	7e 7e 7e 80 76 73 81 8a 95 94 88 88 84 89 84 7b     ~~~.vs.........{
    1b86:	7b 86 8f 8c 84 79 7e 8a 8a 84 7c 79 7a 78 78 71     {....y~...|yzxxq
    1b96:	77 7a 7a 78 70 63 62 7e 8b a1 9b 8b 85 7f 81 79     wzzxpcb~.......y
    1ba6:	6f 70 7c 8d 98 95 92 88 87 87 7b 75 72 7a 8a 90     op|.......{urz..
    1bb6:	90 8a 88 86 82 7d 73 74 77 7b 7c 7d 7e 83 85 80     .....}stw{|}~...
    1bc6:	7a 6e 60 55 60 79 99 a9 a2 91 7e 78 76 72 6e 70     zn`U`y....~xvrnp
    1bd6:	7b 8b 97 9a 96 8a 7f 7d 7b 78 76 77 82 8c 8f 8c     {......}{xvw....
    1be6:	89 87 81 7e 76 72 75 78 7e 7e 7f 81 83 82 7c 71     ...~vrux~~....|q
    1bf6:	64 58 5c 72 90 a9 a7 97 86 79 77 73 6e 6f 77 88     dX\r.....ywsnow.
    1c06:	96 9b 95 8d 80 77 76 73 74 76 7f 8d 94 8e 8a 86     .....wvstv......
    1c16:	82 7d 73 6f 71 77 7f 85 86 87 88 86 7f 72 65 5d     .}soqw.......re]
    1c26:	5a 62 75 90 a4 a9 9c 87 79 72 74 74 73 75 80 8e     Zbu.....yrttsu..
    1c36:	95 93 8a 81 7c 7a 7b 79 77 78 7d 87 8c 8c 89 84     ....|z{ywx}.....
    1c46:	80 7e 77 72 72 76 7f 87 88 88 85 81 7c 73 6a 63     .~wrrv......|sjc
    1c56:	60 64 6f 85 99 a5 a2 8f 81 76 75 76 73 75 78 81     `do......vuvsux.
    1c66:	8c 92 90 8a 83 7e 7b 79 77 75 76 7b 86 8d 8e 8b     .....~{ywuv{....
    1c76:	85 81 7d 7a 76 76 79 7e 85 8a 89 87 82 7a 74 6d     ..}zvvy~.....ztm
    1c86:	68 66 69 6c 81 94 a0 a2 90 86 7a 78 79 76 75 75     hfil......zxyvuu
    1c96:	7a 85 8e 92 8f 87 83 80 7e 7b 77 76 77 7e 86 8b     z.......~{wvw~..
    1ca6:	8e 8b 86 81 7c 7b 79 78 7a 7f 83 87 87 86 81 7b     ....|{yxz......{
    1cb6:	75 6e 6a 67 6a 6d 7f 8f 9c 9e 8f 84 7a 77 78 75     unjgjm......zwxu
    1cc6:	74 74 79 84 8c 91 8d 87 83 7f 7d 79 77 75 77 7e     tty.......}ywuw~
    1cd6:	85 8b 8c 88 83 7e 7d 7c 7b 7a 7a 7e 81 85 86 84     .....~}|{zz~....
    1ce6:	80 78 72 6d 6b 6a 6b 6d 7e 8c 9a 9c 90 87 7c 7b     .xrmkjkm~.....|{
    1cf6:	7b 7a 76 74 75 7e 87 8f 8f 8b 85 81 81 7e 7c 79     {zvtu~.......~|y
    1d06:	75 77 7c 83 88 88 85 82 80 81 80 7e 7b 7b 7e 81     uw|........~{{~.
    1d16:	85 84 82 7b 76 72 72 70 70 6e 70 7e 89 99 98 8f     ...{vrrppnp~....
    1d26:	87 7d 7c 7d 7c 7a 74 75 7b 83 8c 8e 8b 85 80 80     .}|}|ztu{.......
    1d36:	7f 7f 7c 76 75 77 7e 84 86 87 85 84 84 83 83 80     ..|vuw~.........
    1d46:	7e 7e 80 84 84 83 7f 79 76 76 77 75 73 70 72 7d     ~~.....yvvwuspr}
    1d56:	87 93 94 8c 85 7e 7d 7f 7e 7c 77 75 7a 80 88 8a     .....~}.~|wuz...
    1d66:	89 85 81 82 82 81 7c 77 75 76 7d 82 85 86 83 84     ......|wuv}.....
    1d76:	83 83 82 80 7d 7e 81 83 83 80 7d 78 76 76 77 74     ....}~....}xvvwt
    1d86:	72 6f 75 80 89 93 8f 89 82 7c 7d 7f 7e 7a 76 77     rou......|}.~zvw
    1d96:	7b 82 87 88 87 84 81 82 82 81 7d 77 75 75 7a 7f     {.........}wuuz.
    1da6:	83 85 85 85 85 84 83 82 81 80 80 80 7f 7e 7b 78     .............~{x
    1db6:	76 76 77 77 74 72 73 79 83 8b 8e 8a 84 80 7f 80     vvwwtrsy........
    1dc6:	81 7f 7b 78 79 7c 82 87 88 87 85 83 82 83 81 7e     ..{xy|.........~
    1dd6:	79 75 74 79 7d 82 84 84 85 85 87 88 87 85 83 81     yuty}...........
    1de6:	80 7f 7e 7c 7a 79 78 7a 7c 7b 78 75 75 78 80 87     ..~|zyxz|{xuux..
    1df6:	8a 89 86 82 81 82 83 80 7d 79 77 7b 80 86 89 89     ........}yw{....
    1e06:	87 85 84 84 81 7e 7a 76 75 77 7b 7f 82 83 83 84     .....~zvuw{.....
    1e16:	85 87 89 88 85 81 7f 7d 7d 7e 7d 7c 7b 7b 7b 7c     .......}}~}|{{{|
    1e26:	7c 7a 76 74 74 76 7b 81 85 87 86 85 84 83 82 81     |zvttv{.........
    1e36:	7f 7c 7a 7a 7d 81 85 87 87 85 83 82 81 7f 7d 7b     .|zz}.........}{
    1e46:	78 78 7a 7d 7f 81 82 83 84 85 86 87 86 84 81 7f     xxz}............
    1e56:	7d 7c 7d 7e 7e 7d 7c 7b 7a 79 78 77 76 76 78 7b     }|}~~}|{zyxwvvx{
    1e66:	7f 83 85 86 86 85 84 84 83 81 7f 7e 7d 7e 80 82     ...........~}~..
    1e76:	84 85 85 84 84 82 81 80 7e 7c 7c 7c 7d 7e 80 82     ........~|||}~..
    1e86:	83 84 85 85 86 87 87 86 85 82 80 7f 7e 7e 7e 7d     ............~~~}
    1e96:	7c 7b 7a 79 78 78 78 79 7b 7d 7f 80 82 82 83 84     |{zyxxxy{}......
    1ea6:	84 84 83 82 80 80 80 81 81 82 82 82 82 83 82 82     ................
    1eb6:	81 7f 7e 7d 7d 7d 7d 7e 7f 7f 80 81 82 83 84 84     ..~}}}}~........
    1ec6:	84 83 83 83 83 83 82 81 7f 7e 7d 7d 7c 7c 7b 7a     .........~}}||{z
    1ed6:	79 78 78 78 7a 7c 7f 80 82 82 82 82 82 81 81 81     yxxxz|..........
    1ee6:	81 80 7f 7f 7f 80 82 83 83 83 82 81 81 80 7f 7f     ................
    1ef6:	7e 7d 7d 7e 7e 7f 7f 80 80 81 82 83 84 84 83 82     ~}}~~...........
    1f06:	81 80 80 80 81 83 83 83 82 80 7f 7e 7e 7e 7d 7c     ...........~~~}|
    1f16:	7a 79 78 78 79 7a 7c 7e 80 81 83 83 84 83 82 82     zyxxyz|~........
    1f26:	80 7f 7f 7f 7f 80 80 82 83 84 85 85 84 83 81 7f     ................
    1f36:	7e 7d 7c 7c 7c 7d 7d 7e 7f 80 81 81 82 83 82 81     ~}|||}}~........
    1f46:	80 7f 7e 7d 7d 7d 7d 7e 7f 7f 80 80 80 81 80 80     ..~}}}}~........
    1f56:	7f 7e 7e 7d 7d 7d 7e 7e 7f 81 82 84 85 84 83 82     .~~}}}~~........
    1f66:	80 7e 7c 7b 7a 79 78 77 77 78 79 7b 7d 7f 81 82     .~|{zyxwwxy{}...
    1f76:	82 82 82 81 80 7f 7e 7d 7c 7c 7c 7e 80 81 82 83     ......~}|||~....
    1f86:	83 82 82 80 7f 7e 7d 7c 7b 7b 7b 7c 7d 7d 7e 7f     .....~}|{{{|}}~.
    1f96:	81 81 82 83 83 83 81 80 7e 7e 7d 7d 7d 7e 7e 7f     ........~~}}}~~.
    1fa6:	7f 80 81 81 82 81 81 7f 7e 7e 7d 7d 7d 7d 7e 7e     ........~~}}}}~~
    1fb6:	7e 7f 80 81 81 82 81 81 80 80 7f 7f 7f 7f 7f 7e     ~..............~
    1fc6:	7f 80 80 81 82 82 82 83 82 81 81 80 80 80 80 80     ................
    1fd6:	80 80 80 80 81 81 81 80 80 7f 7f 7e 7e 7d 7d 7d     ...........~~}}}
    1fe6:	7d 7d 7e 7e 7e 7f 7f 7f 7f 7f 7f 7f 7f 7f 7f 7f     }}~~~...........
    1ff6:	7f 7f 7f 7f 7f 7f 7e 7f 7e 7f 7e 7e 7e 7e 7e 7e     ......~.~.~~~~~~
    2006:	7e 7e 7e 7e 7e 7e 7e 7e 7e 7e 7f 7f 7f 7f 7f 7f     ~~~~~~~~~~......
    2016:	7e 7e 7e 7e 7e 7d 7d 7d 7d 7e 7e 7e 7f 7f 80 80     ~~~~~}}}}~~~....
    2026:	80 80 80 7f 7e 7e 7e 7e 7e 7f 7f 80 80 7f 7f 7f     ....~~~~~.......
    2036:	7f 7f 7f 7f 80 80 7f 80 7f 7f 7f 7f                 ............

00002042 <hungry_raw>:
    2042:	7f 7f 7f 80 80 80 80 80 80 80 80 80 80 80 80 80     ................
    2052:	7f 80 80 80 80 80 80 80 7f 80 80 80 80 80 80 80     ................
    2062:	80 7f 7f 80 81 80 81 81 80 80 80 80 80 80 80 7f     ................
    2072:	80 80 80 80 80 80 80 81 81 81 81 81 80 81 81 81     ................
    2082:	80 80 81 80 80 80 80 80 80 80 81 80 80 80 80 80     ................
    2092:	80 80 80 80 80 81 81 80 81 80 80 80 80 80 7f 7f     ................
    20a2:	7f 7f 80 80 7f 80 7f 80 80 7f 80 81 81 81 81 80     ................
    20b2:	80 7f 7f 80 80 7f 7f 7f 7f 7f 7e 7f 80 80 81 81     ..........~.....
    20c2:	80 7f 7e 7f 81 80 80 80 7f 80 80 7f 7f 80 80 7f     ..~.............
    20d2:	7e 7e 7e 7f 82 81 7f 7e 7e 82 82 7f 7f 7d 7f 80     ~~~....~~....}..
    20e2:	80 81 7e 7d 7f 80 80 7e 7c 7e 82 82 7f 7f 7e 7e     ..~}...~|~....~~
    20f2:	80 7f 7e 80 7e 7f 81 80 7f 7e 7f 81 81 80 7f 7f     ..~.~....~......
    2102:	7f 81 82 80 7e 7d 7e 7f 80 7f 7e 7f 7f 80 7f 80     ....~}~...~.....
    2112:	80 7d 7f 81 81 83 81 81 81 7e 7f 81 7d 80 80 7d     .}.......~..}..}
    2122:	7f 7e 80 81 80 7f 7f 80 7f 80 80 7f 80 80 80 7f     .~..............
    2132:	80 7f 7d 7f 80 80 7e 7c 7d 81 81 80 80 7d 7c 7f     ..}...~|}....}|.
    2142:	80 80 80 7f 7e 7f 81 81 80 7f 80 7e 81 81 7c 81     ....~......~..|.
    2152:	7f 7d 7f 81 80 80 7c 7a 80 82 80 7f 7e 7e 7f 80     .}....|z....~~..
    2162:	7e 82 7f 7a 81 81 80 7f 7d 7b 82 80 7e 83 7e 7e     ~..z....}{..~.~~
    2172:	80 82 83 80 7d 7d 80 82 7f 7e 7e 7f 80 80 7f 81     ....}}...~~.....
    2182:	7f 7d 7e 7d 7e 7d 80 80 82 80 80 7f 81 7e 7c 83     .}~}~}.......~|.
    2192:	80 81 80 7e 7d 7f 81 84 81 7d 7e 7e 80 81 7e 80     ...~}....}~~..~.
    21a2:	80 7f 83 81 7c 7f 80 7f 83 7e 7e 80 80 7f 7e 84     ....|....~~...~.
    21b2:	81 7d 7d 7c 82 86 81 7e 81 81 81 7e 7e 80 7f 83     .}}|...~...~~...
    21c2:	86 7d 7b 7f 7e 81 84 7c 7e 81 7f 7f 7f 7f 82 7f     .}{.~..|~.......
    21d2:	80 81 7d 7f 7e 7f 82 80 7d 81 80 7f 80 80 7f 80     ..}.~...}.......
    21e2:	7e 7c 7f 7f 81 7f 7d 7d 7d 7b 7c 7f 80 80 83 81     ~|....}}}{|.....
    21f2:	7e 7d 7f 81 82 85 83 80 7c 82 87 7f 7f 83 7f 80     ~}......|.......
    2202:	7e 7e 7f 80 7d 79 7f 80 7c 7e 7f 7d 7e 7b 7b 7e     ~~..}y..|~.}~{{~
    2212:	80 85 89 80 7f 82 7a 82 8a 82 80 85 80 83 7f 7e     ......z........~
    2222:	86 82 7f 81 77 7a 7f 7c 7d 7b 79 76 79 7a 7d 7d     ....wz.|}{yvyz}}
    2232:	81 86 7e 85 89 82 84 86 83 87 86 83 84 81 82 85     ..~.............
    2242:	81 80 7d 73 7b 7e 7a 7b 7b 74 75 79 78 7d 7c 84     ..}s{~z{{tuyx}|.
    2252:	84 7f 89 8a 84 88 86 85 8c 87 86 87 84 86 89 83     ................
    2262:	84 7a 70 78 7d 7a 79 72 6e 76 71 76 7c 80 8b 8e     .zpx}zyrnvqv|...
    2272:	84 81 85 86 87 88 88 88 8c 88 84 87 8b 87 84 7b     ...............{
    2282:	77 74 6e 75 7c 78 6e 6a 64 6c 80 86 88 8b 84 82     wtnu|xnjdl......
    2292:	86 85 84 89 8a 8d 8c 85 86 87 8b 8e 89 81 79 77     ..............yw
    22a2:	72 71 78 7a 77 6c 65 62 72 87 88 89 88 82 86 8a     rqxzwlebr.......
    22b2:	83 84 89 8c 91 88 81 88 8a 90 91 83 7c 79 72 70     ............|yrp
    22c2:	79 7a 7b 73 65 62 67 7b 8b 87 86 8c 8a 8b 8b 81     yz{sebg{........
    22d2:	7f 8a 8a 89 87 85 8d 93 8e 89 82 78 75 71 6b 75     ...........xuqku
    22e2:	81 76 6d 63 5e 77 8d 89 84 84 84 8f 93 87 82 86     .vmc^w..........
    22f2:	88 8a 87 85 8b 90 8f 8b 83 7f 7d 75 6e 70 78 77     ..........}unpxw
    2302:	6e 60 5e 74 89 8f 89 81 82 8e 97 8c 80 80 84 8a     n`^t............
    2312:	89 84 86 90 93 8c 80 7a 7a 76 6f 6e 73 73 6e 60     .......zzvonssn`
    2322:	60 7a 90 8e 82 7b 82 92 95 87 80 83 87 8c 86 82     `z...{..........
    2332:	87 8f 91 8a 7e 79 79 74 6d 70 74 71 68 5c 65 84     ....~yytmptqh\e.
    2342:	93 8b 80 7a 87 95 91 84 81 83 89 8e 83 81 87 8c     ...z............
    2352:	90 8c 80 77 76 73 6c 71 72 6b 62 5f 73 8f 94 88     ...wvslqrkb_s...
    2362:	7b 7a 8a 92 8b 84 85 89 8b 86 82 83 8b 92 8e 84     {z..............
    2372:	7c 76 75 71 6b 71 72 69 5d 63 80 95 94 84 78 81     |vuqkqri]c....x.
    2382:	90 8e 86 85 88 8c 8b 83 7f 85 8c 8d 8c 83 7f 7b     ...............{
    2392:	73 6c 6b 6f 71 65 56 6e 91 9c 93 81 75 87 94 89     slkoqeVn....u...
    23a2:	83 85 89 8e 89 81 82 89 8e 90 88 7e 7c 76 6f 6a     ...........~|voj
    23b2:	6d 70 6c 59 61 89 9a 96 87 76 7d 93 8e 83 84 87     mplYa....v}.....
    23c2:	8c 8e 85 80 86 8c 8e 8c 82 7d 7a 71 6a 69 6f 70     .........}zqjiop
    23d2:	62 58 76 98 9f 91 7a 74 87 92 86 82 86 8b 90 8a     bXv...zt........
    23e2:	80 80 88 8b 8e 89 80 7f 79 6e 6a 6b 69 69 5b 5d     ........ynjkii[]
    23f2:	87 a0 9a 8b 79 77 8c 8f 81 83 8b 8c 8e 88 7c 82     ....yw........|.
    2402:	89 88 8a 86 7e 7c 76 6c 6b 6b 69 61 55 70 9a a2     ....~|vlkkiaUp..
    2412:	94 80 74 82 90 84 7e 88 8c 8f 89 7d 81 88 88 89     ..t...~....}....
    2422:	85 7f 7e 76 6b 6a 6b 6b 62 54 70 97 a1 96 81 73     ..~vkjkkbTp....s
    2432:	7d 8d 87 7f 85 8c 91 8e 82 7d 7e 86 88 82 79 74     }........}~...yt
    2442:	77 7e 7e 7a 74 76 76 71 61 5e 78 8d 9f 8e 7a 75     w~~ztvvqa^x...zu
    2452:	7c 8b 89 80 81 89 96 93 84 7d 7b 87 8a 7f 72 6e     |........}{...rn
    2462:	76 81 81 7b 73 75 75 71 60 61 78 8c 9c 8a 7c 79     v..{suuq`ax...|y
    2472:	81 8b 86 7f 80 8b 97 94 86 7f 7e 88 87 7d 71 6e     ..........~..}qn
    2482:	79 81 81 7a 75 79 77 71 60 5f 76 8b 9a 88 7a 7a     y..zuywq`_v...zz
    2492:	86 8f 86 7b 7f 8c 97 92 84 7f 82 8b 86 7b 70 72     ...{.........{pr
    24a2:	7d 82 80 79 75 79 77 6d 5c 66 7e 92 99 82 7b 7f     }..yuywm\f~...{.
    24b2:	87 8d 82 7c 82 90 9a 91 85 80 85 8c 86 79 6f 74     ...|.........yot
    24c2:	7e 83 7e 76 75 7a 78 6d 5d 68 7e 92 94 80 7d 81     ~.~vuzxm]h~...}.
    24d2:	8b 8c 80 7c 85 93 9a 91 87 83 89 8c 85 79 71 76     ...|.........yqv
    24e2:	7f 81 7c 76 77 7b 79 6c 5d 69 7d 8e 8f 7f 7d 83     ..|vw{yl]i}...}.
    24f2:	8d 8c 81 7d 85 93 98 8f 86 84 8b 8b 83 77 71 77     ...}.........wqw
    2502:	7e 7f 7a 75 76 7b 77 6a 5e 6a 7b 8b 88 7d 7f 86     ~.zuv{wj^j{..}..
    2512:	8e 8a 80 7f 89 95 97 8e 87 86 8c 8a 81 75 72 79     .............ury
    2522:	7f 7e 78 74 78 7a 74 64 5f 70 81 8d 84 7c 80 89     .~xtxztd_p...|..
    2532:	8f 86 7e 82 8c 96 93 8c 88 89 8e 89 7d 74 73 7a     ..~.........}tsz
    2542:	7e 7b 76 75 78 77 70 62 63 72 7f 85 7e 7c 83 8b     ~{vuxwpbcr..~|..
    2552:	8e 87 81 86 8f 96 93 8d 8a 8c 8e 87 7d 76 76 7a     ............}vvz
    2562:	7a 78 75 74 78 77 6f 64 66 72 7d 80 7b 7b 83 8b     zxutxwodfr}.{{..
    2572:	8d 88 84 89 91 95 93 8f 8d 8e 8e 88 7f 79 78 7b     .............yx{
    2582:	7a 77 75 75 77 77 71 68 69 72 79 7a 78 7a 81 88     zwuuwwqhiryzxz..
    2592:	8b 88 86 89 90 94 92 8f 8e 8e 8e 87 7f 79 78 7a     .............yxz
    25a2:	7a 77 74 75 77 76 70 67 68 71 79 7a 78 79 80 88     zwtuwvpghqyzxy..
    25b2:	8b 89 87 8a 90 93 92 90 8e 8f 8e 88 81 7b 7a 7a     .............{zz
    25c2:	7a 78 76 76 77 76 72 6b 69 6f 73 74 74 75 7c 85     zxvvwvrkiosttu|.
    25d2:	89 8a 88 8c 92 95 95 92 91 91 8f 8a 84 7f 7c 7b     ..............|{
    25e2:	7a 77 75 74 75 74 70 69 67 6c 6e 71 72 75 7b 83     zwututpiglnqru{.
    25f2:	8a 8c 8c 90 94 96 97 97 94 92 90 8b 85 80 7c 7a     ..............|z
    2602:	78 76 75 74 74 72 6f 69 67 6c 6e 70 72 76 7d 84     xvuttroiglnprv}.
    2612:	8a 8e 8f 91 96 98 98 97 95 93 8f 8b 85 7f 7b 7a     ..............{z
    2622:	78 76 75 74 74 73 71 6c 68 6b 6f 71 72 75 7c 83     xvuttsqlhkoqru|.
    2632:	89 8d 8e 90 94 96 97 96 94 92 8f 8b 86 80 7c 7a     ..............|z
    2642:	78 76 75 73 74 74 72 6d 68 6a 6e 70 72 74 78 81     xvusttrmhjnprtx.
    2652:	87 8b 8d 8e 92 96 97 97 95 92 8f 8c 87 81 7d 7a     ..............}z
    2662:	78 76 75 74 74 75 73 6f 6a 69 6e 70 71 73 76 7e     xvuttusojinpqsv~
    2672:	85 8a 8c 8d 91 95 97 97 95 93 90 8d 89 83 7e 7b     ..............~{
    2682:	7a 78 76 75 75 76 75 71 6d 69 6c 6f 70 71 73 79     zxvuuvuqmilopqsy
    2692:	82 87 8b 8d 8f 93 96 96 96 94 92 90 8b 86 81 7d     ...............}
    26a2:	7b 79 78 76 75 76 76 74 70 6b 69 6d 6f 6f 71 75     {yxvuvvtpkimooqu
    26b2:	7c 85 89 8c 8e 90 94 96 96 95 94 91 8f 8b 86 81     |...............
    26c2:	7d 7b 79 78 76 75 76 76 74 6f 6a 68 6d 70 6f 71     }{yxvuvvtojhmpoq
    26d2:	75 7d 85 89 8c 8d 91 95 96 96 95 94 91 8e 89 85     u}..............
    26e2:	7f 7d 7b 79 77 76 76 76 76 72 6f 6a 69 6e 6f 6f     .}{ywvvvvrojinoo
    26f2:	72 76 7e 86 89 8c 8e 92 96 96 95 95 93 91 8e 88     rv~.............
    2702:	84 7f 7d 7b 79 77 76 76 76 76 72 6e 6a 69 6e 6f     ..}{ywvvvvrnjino
    2712:	6e 72 76 7f 86 89 8d 8f 92 96 96 95 95 93 91 8e     nrv.............
    2722:	89 84 80 7d 7c 78 76 76 76 77 76 72 6f 6b 69 6d     ...}|xvvvwvrokim
    2732:	70 6e 71 76 7c 85 88 8b 90 91 95 97 95 96 95 92     pnqv|...........
    2742:	8f 8a 85 81 7e 7c 7a 77 76 76 77 77 74 70 6d 69     ....~|zwvvwwtpmi
    2752:	6b 70 6f 6f 74 7a 83 88 8a 8f 91 94 97 95 96 95     kpootz..........
    2762:	92 90 8b 85 82 7e 7c 7a 77 75 75 76 76 74 70 6d     .....~|zwuuvvtpm
    2772:	68 68 6d 6d 6c 71 76 7f 86 89 8e 91 93 97 97 96     hhmmlqv.........
    2782:	97 93 90 8d 87 84 80 7c 7b 78 76 76 75 76 76 72     .......|{xvvuvvr
    2792:	6f 6c 68 6a 6e 6c 6c 73 79 81 87 89 8f 92 94 98     olhjnllsy.......
    27a2:	96 96 96 91 8f 8c 86 84 7f 7c 7b 77 76 77 75 76     .........|{wvwuv
    27b2:	76 72 70 6d 68 6a 6e 6c 6c 73 78 80 87 8a 8f 93     vrpmhjnllsx.....
    27c2:	94 98 97 95 96 92 8f 8d 87 83 80 7c 7b 79 75 76     ...........|{yuv
    27d2:	75 75 76 73 70 6f 6a 68 6c 6c 6b 70 77 7d 86 89     uuvspojhllkpw}..
    27e2:	8e 92 93 97 99 96 96 94 8f 8e 89 84 82 7d 7b 79     .............}{y
    27f2:	76 77 76 75 76 74 71 70 6d 69 6a 6d 6c 6e 75 7b     vwvuvtqpmijmlnu{
    2802:	82 89 8d 92 94 96 99 97 95 95 91 8e 8b 85 82 7e     ...............~
    2812:	7b 7a 76 75 76 75 76 76 73 71 6e 6c 69 6a 6d 6b     {zvuvuvvsqnlijmk
    2822:	6e 76 7b 81 8a 8d 91 95 96 98 97 96 94 91 8d 8a     nv{.............
    2832:	85 82 7f 7b 79 77 75 76 76 76 76 75 73 71 70 6d     ...{ywuvvvvusqpm
    2842:	6a 6d 6f 6e 73 7a 7e 84 8c 90 93 95 96 97 96 95     jmonsz~.........
    2852:	92 8f 8b 89 85 81 7e 7b 79 77 75 76 76 76 76 75     ......~{ywuvvvvu
    2862:	73 71 70 6e 6b 6d 6f 6e 74 7b 7f 85 8c 8f 92 95     sqpnkmont{......
    2872:	96 97 96 94 92 8f 8b 88 84 81 7e 7b 79 78 77 76     ..........~{yxwv
    2882:	77 77 77 76 74 72 71 70 6d 6d 70 70 73 7a 7d 83     wwwvtrqpmmppsz}.
    2892:	8b 8e 91 95 96 97 97 94 93 90 8b 89 85 81 7f 7c     ...............|
    28a2:	7a 79 78 78 78 78 78 77 75 74 73 73 72 6f 6f 73     zyxxxxxwutssroos
    28b2:	74 75 79 7d 81 88 8b 8e 91 93 95 94 92 90 8e 8b     tuy}............
    28c2:	88 85 81 7f 7d 7c 7a 79 78 78 78 78 77 77 76 76     ....}|zyxxxxwwvv
    28d2:	76 76 75 73 73 76 77 77 79 7c 80 84 88 8b 8d 90     vvussvwwy|......
    28e2:	91 91 90 8f 8d 8b 88 86 83 80 7e 7d 7c 7a 79 79     ..........~}|zyy
    28f2:	79 79 79 78 78 77 77 78 77 75 74 75 78 78 78 7a     yyyxxwwxwutuxxxz
    2902:	7d 80 85 88 8a 8c 8f 90 8f 8e 8c 8a 89 87 84 81     }...............
    2912:	7f 7e 7d 7b 7a 79 79 7a 7a 79 79 79 79 7a 7a 78     .~}{zyyzzyyyyzzx
    2922:	77 77 77 78 78 78 79 7c 7f 82 84 87 89 8b 8d 8e     wwwxxxy|........
    2932:	8d 8c 8b 8a 88 86 84 82 81 7f 7e 7c 7b 7b 7b 7b     ..........~|{{{{
    2942:	7b 7b 7b 7a 7a 7a 79 79 79 79 78 78 79 79 79 7b     {{{zzzyyyyxxyyy{
    2952:	7d 7e 80 82 83 84 86 87 88 88 88 87 87 86 85 84     }~..............
    2962:	83 82 81 80 7f 7e 7d 7c 7c 7c 7b 7a 7a 7a 7b 7a     .....~}|||{zzz{z
    2972:	7b 7b 7c 7c 7d 7d 7e 7e 7e 7e 7f 7f 80 80 81 81     {{||}}~~~~......
    2982:	82 82 82 83 83 84 84 84 84 84 84 83 83 82 81 81     ................
    2992:	80 7f 7f 7f 7e 7e 7e 7e 7e 7d 7d 7e 7e 7f 7f 7f     ....~~~~~}}~~...
    29a2:	7f 7f 7f 80 80 80 7f 7e 7e 7e 7e 7e 7e 7f 7f 80     .......~~~~~~...
    29b2:	80 81 81 82 82 83 83 84 84 84 84 84 85 85 82 81     ................
    29c2:	81 81 7f 7e 7c 7b 7c 7c 7c 7c 7c 7d 7e 7f 80 80     ...~|{|||||}~...
    29d2:	81 82 82 82 82 81 80 80 7f 7f 7e 7e 7e 7e 7e 7f     ..........~~~~~.
    29e2:	7f 7f 80 82 82 83 83 83 84 84 84 84 83 82 82 81     ................
    29f2:	80 7f 7e 7d 7d 7c 7d 7c 7c 7c 7d 7e 7e 7f 7f 7f     ..~}}|}|||}~~...
    2a02:	80 80 81 81 80 80 80 80 80 7f 7f 7f 7f 7f 7e 7e     ..............~~
    2a12:	7e 7f 7f 7f 7e 7e 80 80 80 80 80 81 81 80 80 80     ~...~~..........
    2a22:	80 81 81 81 80 7f 7f 83 87 83 7c 78 7c 83 85 80     ..........|x|...
    2a32:	7a 7b 81 85 83 7e 7b 7d 81 81 7c 79 7a 7e 80 7e     z{...~{}..|yz~.~
    2a42:	7b 7c 7f 81 81 7f 7e 7f 80 80 7e 7c 7d 7d 7c 7b     {|....~...~|}}|{
    2a52:	7c 7e 7f 80 7f 80 82 83 84 83 83 83 83 82 81 80     |~..............
    2a62:	80 81 81 81 7f 7e 7f 80 7f 7e 7d 7e 7f 7f 7f 7e     .....~...~}~...~
    2a72:	7f 7f 80 80 7f 7f 7e 7f 7f 7e 7d 7d 7d 7c 7c 7d     ......~..~}}}||}
    2a82:	7d 7d 7e 80 82 83 82 82 83 84 84 83 82 82 81 81     }}~.............
    2a92:	81 80 81 82 81 80 80 81 81 81 80 7f 7f 7f 7f 7e     ...............~
    2aa2:	7c 7d 7f 7e 7d 7c 7d 7e 7d 7b 79 79 7b 7d 7c 7b     |}.~}|}~}{yy{}|{
    2ab2:	7c 7f 83 84 84 83 84 86 86 85 82 81 81 81 81 80     |...............
    2ac2:	80 80 80 81 81 81 81 81 81 7f 7f 7f 7f 7d 7c 7d     .............}|}
    2ad2:	7e 7e 7d 7c 7d 7e 7e 7b 79 79 7b 7c 7c 7b 7c 7f     ~~}|}~~{yy{||{|.
    2ae2:	83 85 85 85 86 87 88 86 83 82 82 82 81 80 7f 7f     ................
    2af2:	81 82 82 80 81 82 83 82 80 7e 7d 7f 7f 7e 7d 7c     .........~}..~}|
    2b02:	7d 7f 7f 7e 7d 7d 7c 7c 79 78 7a 7b 7c 7d 7f 82     }..~}}||yxz{|}..
    2b12:	86 89 88 87 88 88 88 86 83 82 81 80 80 7f 7f 7f     ................
    2b22:	80 81 81 82 82 82 81 81 81 7f 7e 7e 7f 7f 7e 7d     ..........~~..~}
    2b32:	7e 7e 7d 7d 7b 77 74 76 7a 7c 7b 7b 7f 83 88 8a     ~~}}{wtvz|{{....
    2b42:	89 88 88 89 88 84 82 81 80 80 7f 7e 7e 7f 80 80     ...........~~...
    2b52:	81 81 81 82 82 82 81 80 7e 7d 7d 7e 7e 7e 7d 7d     ........~}}~~~}}
    2b62:	7d 7d 7c 79 75 71 74 79 7b 7a 7a 7e 85 8a 8c 8a     }}|yuqty{zz~....
    2b72:	89 8a 8b 89 84 80 80 80 7f 7e 7d 7d 7f 80 81 81     .........~}}....
    2b82:	80 80 81 81 80 7f 7d 7c 7e 81 81 80 80 81 82 81     ......}|~.......
    2b92:	7f 7c 78 75 72 6f 71 77 79 7a 7d 83 8a 8e 8e 8c     .|xuroqwyz}.....
    2ba2:	8b 8a 89 84 7f 7c 7c 7d 7c 7b 7b 7d 81 84 84 83     .....||}|{{}....
    2bb2:	82 83 83 82 7e 7c 7b 7c 7e 80 7f 80 82 84 83 80     ....~|{|~.......
    2bc2:	7d 79 75 70 6c 6f 75 79 78 7a 83 8c 90 90 8c 8b     }yuplouyxz......
    2bd2:	8c 8a 84 7c 79 7a 7b 7a 79 79 7d 82 85 85 82 83     ...|yz{zyy}.....
    2be2:	84 84 82 7e 79 78 7b 7e 7f 7f 80 83 85 85 81 7e     ...~yx{~.......~
    2bf2:	7a 74 6e 6b 6d 73 77 77 7a 83 8d 91 90 8e 8e 8e     ztnkmswwz.......
    2c02:	8b 84 7c 78 7a 7c 7a 78 79 7e 82 86 86 84 84 85     ..|xz|zxy~......
    2c12:	85 83 7f 7b 79 7a 7d 7f 7f 7f 82 85 86 83 7f 7b     ...{yz}........{
    2c22:	76 70 6b 6a 71 76 77 78 7f 8c 92 92 90 8f 8f 8d     vpkjqvwx........
    2c32:	87 7e 78 79 7b 7a 77 77 7d 83 86 86 85 86 88 87     .~xy{zww}.......
    2c42:	83 7e 7b 7a 7b 7c 7e 80 82 85 88 87 85 83 80 7a     .~{z{|~........z
    2c52:	72 6c 69 6e 75 78 76 7c 8a 94 94 91 91 92 90 89     rlinuxv|........
    2c62:	7f 78 78 7a 79 75 75 7d 84 87 87 87 89 8b 89 83     .xxzyuu}........
    2c72:	7e 7c 7b 79 77 7a 7f 83 84 86 89 89 87 84 7e 76     ~|{ywz........~v
    2c82:	71 6a 66 6b 74 77 76 7e 8c 95 94 92 93 93 8e 85     qjfktwv~........
    2c92:	7b 76 75 75 73 72 77 7f 85 88 89 8b 8c 8b 87 81     {vuusrw.........
    2ca2:	7c 79 77 75 74 79 80 84 85 89 8d 8c 88 83 7f 78     |ywuty.........x
    2cb2:	70 68 62 64 70 77 74 79 89 97 97 93 94 95 90 85     phbdpwty........
    2cc2:	7a 73 72 73 70 6e 75 7e 85 89 8b 8e 90 8d 87 82     zsrspnu~........
    2cd2:	7e 79 74 71 71 76 7d 82 85 8a 90 90 8b 87 84 7e     ~ytqqv}........~
    2ce2:	73 6a 64 5f 63 6f 75 74 7e 91 9a 97 95 98 96 8d     sjd_cout~.......
    2cf2:	81 76 72 71 6d 6c 70 7a 82 85 8b 92 94 8f 8a 87     .vrqmlpz........
    2d02:	83 7c 74 6f 70 71 75 7c 83 89 8e 92 91 8e 8a 85     .|topqu|........
    2d12:	7c 72 6a 64 5f 5e 69 75 77 7a 8c 9a 9a 96 97 97     |rjd_^iuwz......
    2d22:	8f 82 77 72 70 6c 6a 6e 77 7e 84 89 90 94 93 8e     ..wrpljnw~......
    2d32:	89 86 80 79 71 6e 6f 71 76 7d 84 89 8f 93 91 8d     ...yqnoqv}......
    2d42:	8b 85 7b 72 6a 64 5f 5d 68 75 76 7a 8c 9c 9b 96     ..{rjd_]huvz....
    2d52:	98 98 8e 80 76 71 6e 6a 68 6e 79 81 84 8b 93 96     ....vqnjhny.....
    2d62:	91 8b 88 84 7b 71 6e 6f 6e 6f 79 84 88 8b 92 96     ....{qnonoy.....
    2d72:	92 8b 86 7f 77 6d 65 60 5f 5e 6a 7a 7b 7f 92 a0     ....wme`_^jz{...
    2d82:	99 95 98 94 86 7b 74 6f 6b 68 6a 73 7d 83 89 92     .....{tokhjs}...
    2d92:	97 95 90 8c 86 7f 76 6f 6e 6d 6c 71 7e 87 89 8e     ......vonmlq~...
    2da2:	98 98 90 8a 87 7e 72 69 66 60 5d 5d 68 7c 7d 7d     .....~rif`]]h|}}
    2db2:	91 a3 9a 92 98 95 84 77 73 6e 69 67 6b 75 7d 81     .......wsnigku}.
    2dc2:	8a 94 95 92 91 8d 84 7c 76 70 6d 6c 6d 72 7d 87     .......|vpmlmr}.
    2dd2:	8a 8f 97 98 91 8b 86 7d 72 6b 66 60 5f 61 67 7d     .......}rkf`_ag}
    2de2:	80 7d 91 a3 99 91 9c 95 81 79 78 6e 68 6a 6d 73     .}.......yxnhjms
    2df2:	7c 82 89 93 96 92 91 8e 84 7d 78 71 6e 6d 6e 71     |........}xqnmnq
    2e02:	7a 85 8a 8d 95 99 93 8c 88 81 75 6e 69 64 60 61     z.........unid`a
    2e12:	64 77 83 7c 89 a0 9e 90 98 9b 88 79 7b 72 68 6a     dw.|.......y{rhj
    2e22:	6e 72 7b 82 88 92 96 92 92 90 85 7d 79 73 6d 6e     nr{........}ysmn
    2e32:	6f 71 78 85 8d 8e 93 9b 95 8c 8a 83 75 6e 6d 66     oqx.........unmf
    2e42:	5f 62 67 6f 83 80 83 9c a1 8f 95 9d 85 78 7d 73     _bgo.........x}s
    2e52:	65 6b 71 6f 77 85 88 8e 97 95 92 90 88 7e 7a 72     ekqow........~zr
    2e62:	6c 6d 6e 6f 77 81 8a 8f 93 98 97 8d 8a 87 7a 6d     lmnow.........zm
    2e72:	6e 6a 61 63 69 69 71 88 85 85 9b 9d 8e 93 96 80     njaciiq.........
    2e82:	78 7b 6f 66 70 71 71 7d 87 89 91 96 93 91 8e 85     x{ofpqq}........
    2e92:	7c 78 70 6c 6d 6e 71 79 82 8a 90 93 97 96 8e 89     |xplmnqy........
    2ea2:	86 7a 72 70 6c 66 6a 6d 6b 72 7a 88 8a 87 95 98     .zrplfjmkrz.....
    2eb2:	8d 8b 8e 80 77 78 74 6d 72 76 77 80 88 8c 8f 93     ....wxtmrvw.....
    2ec2:	92 8f 8a 83 7d 77 71 6f 70 71 74 7b 83 8b 91 93     ....}wqopqt{....
    2ed2:	96 95 8d 89 86 7b 73 73 6e 69 6c 70 6d 74 7b 87     .....{ssnilpmt{.
    2ee2:	8a 87 94 96 8c 8a 8d 7f 76 78 74 6e 72 78 77 7f     ........vxtnrxw.
    2ef2:	89 8c 8e 92 91 8c 87 81 7b 75 72 70 71 72 76 7d     ........{urpqrv}
    2f02:	82 8a 8f 91 93 92 8b 86 82 7b 72 71 6e 6b 6b 71     .........{rqnkkq
    2f12:	6f 72 79 82 8a 83 8c 95 8b 87 8d 83 78 7d 78 70     ory.........x}xp
    2f22:	75 78 76 7f 87 87 8d 90 8f 8d 89 83 7e 79 75 73     uxv.........~yus
    2f32:	72 75 78 7c 81 88 8d 8e 91 92 8c 87 85 7e 76 75     rux|.........~vu
    2f42:	72 6d 6f 71 70 72 7b 7b 86 89 84 91 91 88 8a 8c     rmoqpr{{........
    2f52:	7d 7c 7e 74 73 7a 78 7a 86 88 88 90 91 8c 8b 87     }|~tszxz........
    2f62:	80 7b 79 74 73 76 76 79 7f 84 8a 8f 8f 90 90 88     .{ytsvvy........
    2f72:	85 83 7a 74 74 6f 6d 6f 71 6f 77 7a 81 89 84 8e     ..zttomoqowz....
    2f82:	91 8a 8b 8c 80 7d 7d 74 72 77 73 76 81 84 86 8d     .....}}trwsv....
    2f92:	8e 8b 8c 88 80 7d 7a 74 72 74 75 76 7d 81 87 8c     .....}ztrtuv}...
    2fa2:	8d 8f 90 8a 86 84 7b 75 75 6e 6c 70 6f 6d 75 78     ......{uunlpomux
    2fb2:	7a 8b 84 86 95 8b 87 90 85 7a 81 79 70 76 77 72     z........z.ypvwr
    2fc2:	7c 84 83 88 90 8d 8b 8b 85 7f 7c 77 74 73 74 75     |.........|wtstu
    2fd2:	79 7e 83 89 8c 8e 8f 8d 87 86 81 79 76 75 6d 6d     y~.........yvumm
    2fe2:	71 6e 6f 78 77 80 8b 81 8d 94 88 8a 8f 7f 7d 81     qnoxw.........}.
    2ff2:	74 72 79 75 75 81 84 84 8d 8f 8a 8d 89 82 7f 7b     tryuu..........{
    3002:	76 74 74 75 76 7c 80 85 8a 8c 8f 90 8c 87 86 7e     vttuv|.........~
    3012:	78 77 72 6d 70 70 6c 72 7a 76 84 8c 80 90 93 86     xwrmpplrzv......
    3022:	8c 8d 7c 7f 7e 72 75 77 73 78 81 81 85 8c 8d 89     ..|.~ruwsx......
    3032:	8b 87 80 7e 7b 76 74 75 74 76 7c 7f 84 8b 8b 8d     ...~{vtutv|.....
    3042:	91 8a 87 87 7d 78 77 71 6d 70 6d 6c 73 76 77 88     ....}xwqmpmlsvw.
    3052:	82 86 95 8b 8c 92 87 80 85 79 75 79 73 73 7c 7e     .........yuyss|~
    3062:	7f 87 8a 89 8c 8b 86 84 80 7a 78 76 74 75 77 7a     .........zxvtuwz
    3072:	7f 84 88 8b 8e 8e 8b 8b 85 7e 7b 76 70 70 6e 6a     .........~{vppnj
    3082:	6f 71 71 79 86 7e 89 94 89 8f 94 86 85 88 78 78     oqqy.~........xx
    3092:	7a 72 73 7b 7b 7e 87 88 88 8d 8b 86 86 81 7c 7a     zrs{{~........|z
    30a2:	77 75 75 77 7a 7f 84 88 8b 8e 8e 8b 8c 85 80 7c     wuuwz..........|
    30b2:	77 71 71 70 69 6f 72 72 7a 87 7e 89 95 88 90 94     wqqpiorrz.~.....
    30c2:	86 85 88 77 78 79 72 73 7b 7a 7c 86 86 87 8d 8b     ...wxyrs{z|.....
    30d2:	86 86 82 7c 7a 79 74 75 77 79 7d 83 85 88 8d 8c     ...|zytuwy}.....
    30e2:	8b 8c 85 81 7e 78 73 71 6e 6a 6e 6e 70 75 82 7b     ....~xsqnjnnpu.{
    30f2:	87 90 88 91 93 87 8a 8a 7a 7d 79 72 74 77 77 7a     ........z}yrtwwz
    3102:	81 82 85 89 89 87 87 83 7f 7d 7a 77 77 77 78 7c     .........}zwwwx|
    3112:	80 82 86 8a 89 8b 8b 87 86 81 7c 7a 75 71 70 6d     ..........|zuqpm
    3122:	6f 6e 71 74 7e 7c 81 8e 86 8d 93 89 88 8c 7f 7d     onqt~|.........}
    3132:	80 75 77 7b 76 7a 7f 7e 81 85 84 83 85 83 80 7f     .uw{vz.~........
    3142:	7e 7a 7b 7b 7a 7c 80 80 84 88 88 87 8a 89 83 85     ~z{{z|..........
    3152:	7f 7a 79 75 71 70 6f 6e 6f 73 7b 77 83 89 82 90     .zyuqponos{w....
    3162:	90 88 8e 8b 80 84 7f 77 7b 78 76 7c 7d 7c 81 83     .......w{xv|}|..
    3172:	81 84 83 81 80 7f 7c 7b 7c 7b 7c 7f 80 81 87 87     ......|{|{|.....
    3182:	87 89 89 84 85 82 7c 79 77 73 70 71 6e 6f 70 7a     ......|ywspqnopz
    3192:	78 7d 89 83 8a 92 89 8c 90 84 84 84 7a 7a 7c 76     x}..........zz|v
    31a2:	79 7c 7a 7e 81 81 82 83 81 82 80 7f 7f 7d 7d 7d     y|z~.........}}}
    31b2:	7d 80 81 81 85 86 85 88 87 84 85 81 7d 7b 77 73     }...........}{ws
    31c2:	73 70 6e 70 6f 7a 75 7d 88 81 8c 91 8a 8f 91 86     spnpozu}........
    31d2:	89 87 7d 80 7e 79 7b 7d 7b 7e 80 80 82 81 81 81     ..}.~y{}{~......
    31e2:	80 80 80 80 7f 7f 80 82 82 85 87 86 88 89 87 87     ................
    31f2:	85 83 7f 7d 7a 77 75 73 70 71 70 74 79 75 83 83     ...}zwuspqptyu..
    3202:	84 8f 8b 8a 92 8a 87 8c 83 80 82 7d 7a 7e 7b 7a     ...........}z~{z
    3212:	7e 7d 7c 80 7f 7e 81 80 7e 81 80 7f 81 81 82 83     ~}|..~..~.......
    3222:	85 85 86 87 87 85 85 83 7f 7d 7b 78 74 75 6f 70     .........}{xtuop
    3232:	71 71 77 75 7e 81 80 8b 8b 8a 90 8c 89 8c 86 81     qqwu~...........
    3242:	83 7f 7c 7e 7c 7b 7e 7e 7c 7f 7e 7e 80 7f 7e 80     ..|~|{~~|.~~..~.
    3252:	7f 7f 81 81 82 83 85 85 86 87 87 85 85 83 7f 7d     ...............}
    3262:	7a 78 74 74 70 70 70 71 78 74 7e 82 80 8c 8b 89     zxttpppqxt~.....
    3272:	92 8d 88 8e 87 82 84 80 7c 7f 7d 7b 7e 7d 7c 7f     ........|.}{~}|.
    3282:	7e 7d 7f 7e 7e 80 7f 7f 81 81 84 84 86 88 87 88     ~}.~~...........
    3292:	89 86 85 84 7e 7d 7a 76 74 73 6f 71 70 74 76 78     ....~}zvtsoqptvx
    32a2:	81 7f 86 8c 88 8d 8e 89 8b 89 84 85 81 80 80 7f     ................
    32b2:	7f 7e 7e 7e 7e 7d 7c 7d 7b 7b 7b 7b 7c 7e 7f 82     .~~~~}|}{{{{|~..
    32c2:	85 84 8a 8a 88 8c 88 86 87 80 7e 7d 76 75 74 70     ..........~}vutp
    32d2:	70 70 70 71 78 77 7c 82 80 87 8a 88 8b 8c 88 8a     pppqxw|.........
    32e2:	88 84 86 83 81 83 80 7f 7f 7d 7c 7c 7a 7a 7a 7a     .........}||zzzz
    32f2:	79 7b 7c 7c 7f 81 84 85 88 88 89 8a 88 87 85 81     y{||............
    3302:	7e 7c 78 76 73 71 70 70 70 73 75 76 7c 7d 81 86     ~|xvsqpppsuv|}..
    3312:	86 89 8b 89 8a 8a 87 87 85 82 83 81 7f 80 7e 7c     ..............~|
    3322:	7d 7b 7a 7a 79 7a 7a 7b 7d 7f 80 84 84 87 88 88     }{zzyzz{}.......
    3332:	89 89 87 85 83 7f 7d 79 77 74 72 70 70 71 72 74     ......}ywtrppqrt
    3342:	76 7a 7d 80 84 85 88 89 89 8a 88 87 87 85 83 83     vz}.............
    3352:	82 80 81 7e 7d 7d 7a 79 79 78 78 79 79 7c 7d 7f     ...~}}zyyxxyy|}.
    3362:	82 84 85 86 87 86 86 85 83 81 7f 7c 79 78 76 74     ...........|yxvt
    3372:	75 72 72 76 72 77 7c 78 7f 82 80 86 87 85 8a 88     urrvrw|x........
    3382:	86 89 87 85 87 84 82 83 80 7e 7e 7c 7a 7a 78 79     .........~~|zzxy
    3392:	79 79 7b 7d 7f 81 83 85 85 86 87 86 85 84 82 80     yy{}............
    33a2:	7e 7b 7a 78 75 75 74 72 75 74 75 7a 79 7d 81 80     ~{zxuutrutuzy}..
    33b2:	84 87 86 88 89 88 89 88 87 87 85 84 83 81 7f 7e     ...............~
    33c2:	7c 7a 7a 79 79 79 7a 7b 7d 7f 81 82 83 85 85 86     |zzyyyz{}.......
    33d2:	86 84 83 82 7f 7e 7c 79 79 76 74 75 74 74 77 78     .....~|yyvtuttwx
    33e2:	78 7c 7e 7f 83 84 85 88 87 88 89 87 87 87 85 84     x|~.............
    33f2:	84 81 80 7f 7d 7c 7a 7a 7a 79 7a 7c 7c 7f 80 82     ....}|zzzyz||...
    3402:	84 84 85 86 85 84 83 81 7f 7e 7b 79 78 75 75 75     .........~{yxuuu
    3412:	74 75 78 78 7a 7e 7e 81 84 84 86 88 88 89 89 88     tuxxz~~.........
    3422:	89 88 86 86 84 82 81 7f 7d 7c 7b 7a 7a 7a 7b 7c     ........}|{zzz{|
    3432:	7d 7e 80 82 83 84 85 85 85 85 83 82 81 7e 7d 7b     }~...........~}{
    3442:	79 78 76 75 77 75 77 7a 78 7c 7e 7f 83 85 85 88     yxvuwuwzx|~.....
    3452:	88 88 8a 89 89 89 87 86 85 83 82 80 7e 7d 7c 7b     ............~}|{
    3462:	7a 7a 7a 7b 7c 7d 7f 81 82 83 84 84 84 84 83 82     zzz{|}..........
    3472:	81 7f 7d 7c 7b 79 78 77 77 77 78 79 7a 7b 7d 7f     ..}|{yxwwwxyz{}.
    3482:	81 82 85 86 86 88 88 88 88 88 87 86 84 83 82 80     ................
    3492:	7f 7d 7c 7c 7b 7b 7b 7b 7c 7d 7e 7f 80 81 83 82     .}||{{{{|}~.....
    34a2:	83 83 82 82 81 7f 7f 7d 7b 7b 79 78 78 77 78 79     .......}{{yxxwxy
    34b2:	79 7a 7b 7c 7e 80 81 83 84 85 86 87 87 87 86 86     yz{|~...........
    34c2:	85 84 83 81 80 80 7e 7e 7d 7d 7d 7c 7d 7d 7e 7f     ......~~}}}|}}~.
    34d2:	7f 80 81 81 82 82 81 81 80 80 7f 7e 7d 7c 7b 7a     ...........~}|{z
    34e2:	7a 79 79 79 79 79 7a 7c 7d 7e 7f 81 82 83 85 85     zyyyyyz|}~......
    34f2:	86 86 86 86 85 85 84 83 82 81 80 7f 7e 7e 7e 7d     ............~~~}
    3502:	7d 7e 7e 7f 80 80 81 82 82 83 82 82 82 81 80 80     }~~.............
    3512:	7f 7e 7d 7c 7c 7b 7b 7a 7a 7b 7c 7d 7e 7f 80 80     .~}||{{zz{|}~...
    3522:	82 83 84 85 86 86 86 86 86 86 85 84 83 82 81 80     ................
    3532:	7f 7f 7e 7e 7e 7e 7e 7f 7f 7f 80 80 81 81 81 82     ..~~~~~.........
    3542:	81 81 80 80 7f 7e 7e 7d 7c 7b 7b 7b 7a 7a 7b 7b     .....~~}|{{{zz{{
    3552:	7c 7c 7d 7e 7f 80 82 82 83 85 85 85 85 85 86 85     ||}~............
    3562:	84 84 83 83 82 81 81 80 80 80 7f 7f 7f 7f 80 80     ................
    3572:	80 80 80 80 80 80 80 80 80 7f 7f 7e 7e 7d 7d 7d     ...........~~}}}
    3582:	7c 7c 7c 7c 7c 7c 7d 7e 7e 7f 80 81 82 82 83 84     ||||||}~~.......
    3592:	84 85 84 85 84 84 84 84 83 83 82 81 81 80 80 80     ................
    35a2:	7f 7f 7f 7f 80 80 80 81 81 81 81 81 81 81 80 80     ................
    35b2:	7f 7f 7f 7e 7e 7e 7d 7d 7d 7d 7d 7d 7e 7e 7e 7f     ...~~~}}}}}}~~~.
    35c2:	7f 80 81 82 82 83 83 84 84 84 84 84 84 83 83 82     ................
    35d2:	82 82 81 80 80 7f 80 7f 7f 80 7f 7f 7f 7f 7f 80     ................
    35e2:	7f 7f 7f 7f 7f 7f 7e 7e 7e 7e 7e 7d 7e 7d 7d 7d     ......~~~~~}~}}}
    35f2:	7e 7e 7e 7f 7f 7f 80 80 80 81 81 82 82 82 82 83     ~~~.............
    3602:	83 83 83 83 82 82 82 82 81 81 81 81 81 81 81 80     ................
    3612:	80 80 80 7f 80 80 80 7f 80 7f 7f 7f 7f 7f 7f 7f     ................
    3622:	7e 7e 7e 7e 7e 7e 7f 7f 7f 7f 7f 7f 80 80 80 81     ~~~~~~..........
    3632:	81 81 81 81 82 81 81 82 81 82 82 82 82 82 81 81     ................
    3642:	81 81 81 81 81 81 81 81 81 81 80 80 80 80 80 7f     ................
    3652:	80 7f 7f 7f 7f 7f 7f 7f 7f 7f 7f 7f 7f 7f 7e 7f     ..............~.
    3662:	7f 7f 7f 7f 7f 7f 7f 80 80 80 80 80 80 80 80 80     ................
    3672:	80 80 80 80 80 80 81 80 80 80 80 80 80 80 80 81     ................
    3682:	80 80 80 80 80 80 80 80 80 80 7f 7f 7f 7f 7f 7f     ................
    3692:	7f 7f 7e 7f 7f 7f 7f 7f 7f 7e 7e 7f 7f 7f 7f 7f     ..~......~~.....
    36a2:	7f 80 80 80 80 81 81 81 81 81 81 81 81 81 81 80     ................
    36b2:	80 80 80 80 80 80 80 80 7f 7f 80 80 80 80 7f 80     ................
    36c2:	80 80 80 80 7f 7f 7f 7f 7f 7f 7f 7f 7f 7e 7f 7e     .............~.~
    36d2:	7e 7e 7e 7e 7f 7e 7e 7f 7e 7f 7f 7f 7f 7f 7f 80     ~~~~.~~.~.......
    36e2:	80 80 80 80 80 80 80 80 80 80 80 80 80 80 80 80     ................
    36f2:	80 80 80 7f 7f 80 80 7f 80 80 7f 7f 7f 7f 7f 7f     ................
    3702:	7f 7f 7e 7e 7f 7f 7f 7f 7f 7e 7e 7e 7e 7e 7e 7f     ..~~.....~~~~~~.
    3712:	7f 7e 7f 7f 7f 7f 7f 7f 7f 7f 7f                    .~.........

0000371d <nayir_raw>:
    371d:	80 7f 7f 7f 7f 7f 7f 7f 7f 7f 7f 7f 80 80 80 7f     ................
    372d:	80 80 80 80 80 80 80 80 80 80 80 80 80 80 7f 7f     ................
    373d:	80 80 80 7f 7f 7f 7f 80 80 7f 80 80 80 80 80 80     ................
    374d:	80 80 80 80 80 81 80 80 80 80 80 80 80 80 80 80     ................
    375d:	80 80 80 80 80 80 80 7f 7f 80 80 80 80 80 80 80     ................
    376d:	80 80 80 80 80 80 80 80 80 80 80 80 81 81 81 81     ................
    377d:	81 81 81 81 82 81 81 81 80 7f 7e 7e 7d 7c 7b 7b     ..........~~}|{{
    378d:	7b 7a 7b 7b 7b 7c 7d 7e 7f 80 81 82 83 83 84 85     {z{{{|}~........
    379d:	85 85 85 84 84 83 82 82 81 81 80 7f 7f 7e 7e 7d     .............~~}
    37ad:	7d 7d 7d 7d 7e 7e 7e 7e 7f 80 80 81 82 82 82 82     }}}}~~~~........
    37bd:	83 83 83 83 83 83 82 82 82 82 81 81 81 80 80 7f     ................
    37cd:	7f 7e 7e 7d 7d 7d 7d 7d 7d 7d 7d 7e 7e 7f 7f 80     .~~}}}}}}}}~~...
    37dd:	80 81 81 81 82 82 82 82 82 81 81 81 81 80 80 80     ................
    37ed:	80 7f 7f 7f 7f 7e 7e 7e 7e 7e 7d 7e 7d 7e 7e 7e     .....~~~~~}~}~~~
    37fd:	7e 7e 7e 7e 7e 7e 7f 7f 7f 80 80 80 81 81 81 82     ~~~~~~..........
    380d:	82 82 83 83 83 82 82 82 81 80 80 7f 7e 7d 7c 7b     ............~}|{
    381d:	7a 79 77 77 77 77 79 7b 7c 7f 81 83 85 86 87 88     zywwwwy{|.......
    382d:	88 87 87 87 86 86 85 85 84 82 82 81 80 7f 7e 7e     ..............~~
    383d:	7c 7b 7a 78 77 76 77 75 76 79 7a 7d 80 82 85 87     |{zxwvwuvyz}....
    384d:	88 89 8a 89 89 89 88 87 86 86 84 83 81 80 7e 7c     ..............~|
    385d:	7b 7a 79 78 77 77 76 75 75 74 76 76 76 79 7b 7d     {zyxwwvuutvvvy{}
    386d:	81 83 85 88 88 89 8a 8a 89 89 88 87 86 85 85 83     ................
    387d:	81 80 7f 7e 7c 7b 7a 79 79 78 77 76 75 75 77 76     ...~|{zyyxwvuuwv
    388d:	77 7b 7c 7f 83 85 87 89 8a 8b 8c 8b 8b 8a 8a 89     w{|.............
    389d:	88 88 87 85 83 82 80 7e 7d 7b 7b 79 78 77 76 75     .......~}{{yxwvu
    38ad:	73 74 75 74 76 79 7b 7f 81 84 87 88 89 8a 8a 8b     stutvy{.........
    38bd:	8a 8a 8a 88 88 88 86 84 83 81 80 7e 7c 7b 79 78     ...........~|{yx
    38cd:	77 76 75 74 72 74 74 73 76 79 7b 80 82 84 88 89     wvutrttsvy{.....
    38dd:	8a 8c 8b 8c 8b 8a 8b 89 88 89 86 85 83 81 80 7e     ...............~
    38ed:	7c 7b 79 78 77 76 75 73 72 74 73 73 77 79 7c 80     |{yxwvusrtsswy|.
    38fd:	82 86 88 88 8b 8c 8b 8c 8b 8a 8a 88 88 88 85 84     ................
    390d:	82 80 7f 7d 7c 7a 79 78 77 75 75 73 72 75 73 74     ...}|zyxwuusrust
    391d:	78 79 7d 81 83 86 88 88 8a 8b 8b 8b 8a 8a 8a 88     xy}.............
    392d:	87 86 84 83 81 7f 7e 7c 7b 7a 79 77 76 75 74 72     ......~|{zywvutr
    393d:	72 74 72 75 78 79 7e 81 83 87 88 89 8b 8b 8b 8b     rtruxy~.........
    394d:	8a 8a 89 87 87 86 84 83 80 7f 7e 7c 7b 7a 78 77     ..........~|{zxw
    395d:	76 75 75 72 73 74 72 76 79 7a 7f 81 83 87 88 89     vuurstrvyz......
    396d:	8b 8b 8b 8b 89 8b 89 87 88 85 84 82 80 80 7e 7c     ..............~|
    397d:	7c 79 78 78 75 76 74 72 74 74 72 76 79 7a 7f 81     |yxxuvtrttrvyz..
    398d:	84 88 88 8a 8b 8b 8b 8a 89 8a 88 87 87 85 83 82     ................
    399d:	80 7f 7e 7b 7a 79 78 77 75 75 74 71 73 73 71 76     ..~{zyxwuutqssqv
    39ad:	78 7a 7f 81 85 87 88 89 8b 8c 8b 8b 8a 8a 88 87     xz..............
    39bd:	86 85 84 81 7f 7e 7e 7b 7a 79 78 77 75 74 74 71     .....~~{zyxwuttq
    39cd:	72 74 71 76 78 7a 80 82 84 8a 89 89 8b 8c 8c 8a     rtqvxz..........
    39dd:	8b 89 88 86 87 84 84 81 7e 7f 7c 80 79 78 78 75     ........~.|.yxxu
    39ed:	73 72 6f 6d 75 72 73 79 7c 80 83 83 89 8c 8c 8b     sromursy|.......
    39fd:	8c 8f 8d 8a 8b 8b 87 84 83 81 80 79 79 78 75 77     ...........yyxuw
    3a0d:	72 74 71 6f 6f 73 66 79 8c 7a 86 8b 8e 8f 83 89     rtqoosfy.z......
    3a1d:	8f 82 83 86 8b 8e 81 89 8c 80 7d 7d 7d 7a 75 7b     ..........}}}zu{
    3a2d:	7c 76 7c 7a 7b 74 6f 74 74 64 7c 97 7e 8a 93 91     |v|z{tottd|.~...
    3a3d:	8e 7c 82 89 78 7c 82 8a 8e 80 8c 8b 7f 7f 7b 7c     .|..x|........{|
    3a4d:	7a 73 7c 7b 76 7c 78 7d 75 6e 74 74 62 7c 97 7f     zs|{v|x}unttb|..
    3a5d:	8a 94 92 90 7d 80 8a 77 79 81 8b 8f 7e 8d 8e 7b     ....}..wy...~..{
    3a6d:	7d 7a 7b 79 75 80 7f 79 7d 7c 7e 71 6b 7a 70 5d     }z{yu..y}|~qkzp]
    3a7d:	83 9b 83 8b 94 96 8a 72 7d 84 73 78 87 93 8e 82     .......r}.sx....
    3a8d:	93 88 77 7a 77 79 77 77 87 81 7a 7e 7c 7a 68 6d     ..wzwyww..z~|zhm
    3a9d:	76 6e 5c 82 a8 84 88 97 90 82 6f 77 84 74 7b 90     vn\.......ow.t{.
    3aad:	96 93 84 8e 87 70 77 7c 7a 7a 7f 87 86 79 7d 7a     .....pw|zz...y}z
    3abd:	75 68 6a 77 74 5f 7d af 89 85 99 8d 83 6f 72 85     uhjwt_}......or.
    3acd:	75 78 95 96 96 88 8b 8a 70 72 7c 7b 79 7c 86 8a     ux......pr|{y|..
    3add:	7a 7c 7d 77 6c 67 71 76 65 68 aa 99 7e 96 92 86     z|}wlgqveh..~...
    3aed:	73 6c 82 7c 73 91 98 98 8b 85 8f 73 6e 7c 7b 7b     sl.|s......sn|{{
    3afd:	7e 85 8b 7c 78 7e 73 6e 66 70 76 6f 60 9c ac 79     ~..|x~snfpvo`..y
    3b0d:	93 95 84 77 67 7c 84 6f 8c 9b 94 93 81 89 7a 69     ...wg|.o......zi
    3b1d:	7a 7e 7e 81 85 89 81 74 7a 74 70 68 70 79 75 64     z~~....tztphpyud
    3b2d:	75 b9 8d 79 9d 8b 7a 6d 6e 87 79 78 9c 97 91 8a     u..y..zmn.yx....
    3b3d:	82 82 6d 6f 83 7d 7e 8a 88 84 79 76 7b 72 6c 6c     ..mo.}~...yv{rll
    3b4d:	7a 77 6f 68 9c ab 75 8d 98 7f 72 6f 7b 84 71 8a     zwoh..u...ro{.q.
    3b5d:	a1 8f 92 87 84 7c 6c 78 80 7d 83 8b 86 82 78 78     .....|lx.}....xx
    3b6d:	78 6f 6a 73 7e 74 68 73 ae 95 75 99 90 76 71 6f     xojs~ths..u..vqo
    3b7d:	82 7f 74 99 9a 8c 90 86 80 73 6f 80 7e 7c 8b 8d     ..t......so.~|..
    3b8d:	83 7f 78 7b 72 6f 6c 75 77 74 6b 7e b4 82 7e a2     ..x{roluwtk~..~.
    3b9d:	83 6e 74 72 81 79 7d 9f 90 8d 92 81 79 72 75 83     .ntr.y}.....yru.
    3bad:	7a 80 8e 86 7e 82 76 79 6e 72 70 72 75 73 6b 7e     z...~.vynrprusk~
    3bbd:	b4 7f 7f a3 7d 6f 7a 73 7e 75 80 9c 8e 8c 98 82     ....}ozs~u......
    3bcd:	75 78 78 7f 75 82 8b 85 80 82 7c 7a 71 71 6d 76     uxx.u.....|zqqmv
    3bdd:	75 6e 68 83 b0 7f 83 a3 84 6e 79 77 78 73 86 99     unh......nywxs..
    3bed:	8b 8d 9c 87 76 7d 76 7d 74 82 8a 83 80 87 7d 7a     ....v}v}t.....}z
    3bfd:	75 72 6f 70 77 70 69 7f ae 80 82 a5 83 70 7a 7b     uropwpi......pz{
    3c0d:	7b 74 84 97 8a 8e 99 86 77 7b 79 7a 71 81 88 84     {t......w{yzq...
    3c1d:	84 89 81 7a 72 75 70 6c 79 6d 68 75 a6 92 78 a4     ...zruplymhu..x.
    3c2d:	92 74 83 7b 70 73 79 87 87 8a 93 8f 8b 84 80 7d     .t.{psy........}
    3c3d:	76 78 7d 74 7b 82 7f 80 7f 77 6f 5c 5b 97 8a 75     vx}t{....wo\[..u
    3c4d:	ab a3 87 9c 83 6f 74 6f 70 78 85 87 86 96 92 82     .....otopx......
    3c5d:	87 79 72 79 73 72 7d 7e 7f 80 81 73 67 54 85 95     .yrysr}~...sgT..
    3c6d:	69 9d ac 87 91 9a 76 71 77 6a 74 7e 87 86 92 98     i.....vqwjt~....
    3c7d:	83 88 80 72 7a 7a 6c 77 7f 7a 7a 89 73 6c 66 66     ...rzzlw.zz.slff
    3c8d:	9f 76 7d af 89 8b a1 7d 75 80 71 6d 79 82 83 81     .v}....}u.qmy...
    3c9d:	95 8f 83 8c 7e 7b 77 73 72 76 7d 7f 79 85 77 71     ....~{wsrv}.y.wq
    3cad:	62 68 9e 76 7f b1 8b 8b a1 7b 77 79 6f 74 7b 82     bh.v.....{wyot{.
    3cbd:	82 86 96 88 82 8c 7a 7b 7f 71 71 7f 7a 78 81 81     ......z{.qq.zx..
    3ccd:	6f 70 61 85 94 6a 9f a3 7b 9c 91 72 81 7b 6b 74     opa..j..{..r.{kt
    3cdd:	7f 7c 7f 8b 93 81 8f 82 76 81 7b 70 74 7d 75 7b     .|......v.{pt}u{
    3ced:	81 7c 72 73 5f 98 88 64 b3 93 78 a6 8a 6e 8a 78     .|rs_..d..x..n.x
    3cfd:	6d 7b 7b 7b 7f 8e 89 83 91 7e 7b 83 78 70 7a 79     m{{{.....~{.xpzy
    3d0d:	75 7b 7c 7d 73 6f 64 9b 7f 6a b6 8a 7b a9 86 6f     u{|}sod..j..{..o
    3d1d:	89 78 6a 7a 7d 7b 7d 8e 8b 81 91 80 7d 84 79 71     .xjz}{}.....}.yq
    3d2d:	7d 75 74 7c 79 7a 73 70 65 9a 7f 70 b1 8c 7e a8     }ut|yzspe..p..~.
    3d3d:	86 72 8a 79 6e 79 7d 79 7d 8c 88 83 91 81 7d 86     .r.yny}y}.....}.
    3d4d:	79 72 7d 73 73 7a 77 7b 70 72 66 95 87 6c b1 8c     yr}sszw{prf..l..
    3d5d:	78 ad 89 6f 91 79 6c 80 7b 74 7e 89 83 86 91 83     x..o.yl.{t~.....
    3d6d:	80 89 7b 74 79 75 71 7a 77 77 76 75 63 84 97 63     ..{tyuqzwwvuc..c
    3d7d:	9f a0 6f a4 9c 6d 8e 85 66 7f 7d 6f 79 85 80 82     ..o..m..f.}oy...
    3d8d:	8e 85 81 8a 81 7a 79 7b 70 78 79 6f 78 74 68 6e     .....zy{pxyoxthn
    3d9d:	9a 78 7b ae 80 86 a9 81 79 93 73 6f 84 74 71 7e     .x{.....y.so.tq~
    3dad:	84 7e 85 8e 81 84 8a 7d 77 7d 78 70 7e 74 76 77     .~.....}w}xp~tvw
    3dbd:	71 68 7d 98 6b 94 a5 76 9a 9f 75 86 8a 6b 79 80     qh}.k..v..u..ky.
    3dcd:	71 75 84 80 81 8a 88 7f 88 85 79 7f 7e 73 79 7a     qu........y.~syz
    3ddd:	70 7a 71 6b 6b 8c 85 72 a4 8e 7d a7 90 78 91 7c     pzqkk..r..}..x.|
    3ded:	6e 83 76 6e 7d 7e 7b 84 88 81 84 8b 7f 7e 83 79     n.vn}~{......~.y
    3dfd:	74 7d 72 74 77 6d 6b 70 90 74 80 a6 7c 8f a7 7f     t}rtwmkp.t..|...
    3e0d:	84 92 73 7a 83 6e 72 7e 77 7a 87 81 81 89 85 80     ..sz.nr~wz......
    3e1d:	84 81 79 7c 7b 71 78 72 6c 6e 73 88 78 83 9e 83     ..y|{qxrlns.x...
    3e2d:	8f a1 82 86 92 79 7b 82 6f 75 7d 74 7e 80 80 85     .....y{.ou}t~...
    3e3d:	84 87 83 81 82 7d 7b 79 77 75 73 6b 6f 71 84 7d     .....}{ywuskoq.}
    3e4d:	7c 9d 85 8a a2 85 87 96 7b 7c 82 70 75 7a 75 7d     |.......{|.puzu}
    3e5d:	7f 81 83 85 88 81 86 80 7d 7e 77 77 77 72 6d 6e     ........}~wwwrmn
    3e6d:	75 87 77 88 9a 7d 96 9d 80 8e 94 75 81 83 6e 78     u.w..}.....u..nx
    3e7d:	7a 75 7a 7f 80 80 85 88 81 86 83 7f 80 79 78 79     zuz..........yxy
    3e8d:	70 6d 6e 72 87 73 87 99 7b 99 9c 80 94 92 78 86     pmnr.s..{.....x.
    3e9d:	83 6e 7a 79 71 7c 7d 7a 83 83 84 86 86 83 82 83     .nzyq|}z........
    3ead:	7a 78 7b 71 6e 71 6d 83 78 7c 98 81 8e 9f 86 8f     zx{qnqm.x|......
    3ebd:	96 7e 84 86 72 78 77 70 79 7a 79 80 82 83 87 85     .~..rxwpyzy.....
    3ecd:	84 84 81 7e 7b 7a 75 6e 71 6d 78 7e 75 8d 8c 84     ...~{zunqmx~u...
    3edd:	9b 92 87 96 88 7e 88 78 73 7b 71 75 7a 79 7b 83     .....~.xs{quzy{.
    3eed:	82 86 87 84 86 82 80 7b 7b 76 6f 72 6e 72 82 75     .......{{vornr.u
    3efd:	85 91 82 94 98 87 92 92 7f 86 81 71 7b 75 72 79     ...........q{ury
    3f0d:	79 7a 7f 84 83 85 86 84 82 83 7d 7c 79 74 70 6e     yz........}|ytpn
    3f1d:	71 7e 77 7f 91 81 8f 9c 88 91 98 82 86 87 75 78     q~w...........ux
    3f2d:	7a 70 77 77 76 7d 80 81 84 85 83 85 84 7f 7d 7b     zpwwv}........}{
    3f3d:	76 70 6f 6e 78 7c 75 8b 89 83 99 91 88 9a 8d 81     vponx|u.........
    3f4d:	8b 7e 73 7c 75 71 79 76 79 80 82 83 85 87 84 85     .~s|uqyvy.......
    3f5d:	83 7d 7c 7a 74 6e 6e 70 7d 75 80 8e 80 92 99 88     .}|ztnnp}u......
    3f6d:	93 97 83 88 87 75 79 7b 6f 75 78 76 7a 81 81 82     .....uy{ouxvz...
    3f7d:	86 87 83 86 81 7d 7c 77 71 6f 6c 76 7d 72 8a 89     .....}|wqolv}r..
    3f8d:	83 9b 92 89 9a 8e 83 8b 7e 74 7c 75 71 78 76 78     ........~t|uqxvx
    3f9d:	7e 83 80 85 88 83 87 84 7e 7e 79 73 70 6f 6c 7c     ~.......~~yspol|
    3fad:	7a 77 8e 86 89 9b 90 8e 99 8a 85 89 7b 76 7b 73     zw..........{v{s
    3fbd:	73 78 77 79 7f 85 81 87 8a 83 87 84 7d 7c 78 70     sxwy........}|xp
    3fcd:	6f 70 6c 80 75 7f 8f 81 92 99 8b 94 95 83 8a 83     opl.u...........
    3fdd:	76 78 77 70 73 77 75 79 82 81 83 88 86 82 87 80     vxwpswuy........
    3fed:	7d 7a 76 6f 6d 6f 6e 82 74 83 8e 82 95 97 8a 94     }zvomon.t.......
    3ffd:	90 83 87 80 78 76 77 71 72 78 77 78 82 80 84 88     ....xvwqrxwx....
    400d:	84 84 85 7e 7e 79 74 6f 6c 6f 6e 81 75 82 8e 83     ...~~ytolon.u...
    401d:	93 97 8a 94 90 83 88 80 79 76 77 71 72 79 79 79     ........yvwqryyy
    402d:	85 81 83 8c 83 83 87 7c 7c 7a 72 6d 70 6b 71 82     .......||zrmpkq.
    403d:	73 88 8e 83 98 97 89 98 8e 81 89 7d 76 77 75 70     s..........}vwup
    404d:	74 7a 79 7d 87 81 88 8c 84 84 86 7c 7c 78 71 6d     tzy}.......||xqm
    405d:	70 6c 6f 87 73 87 95 82 97 9c 88 94 93 7e 85 7f     plo.s........~..
    406d:	75 73 77 72 71 7c 7b 7b 88 84 85 8d 87 82 85 7f     uswrq|{{........
    407d:	76 79 74 6a 6f 73 66 86 82 75 9a 8c 86 a2 92 86     vytjosf..u......
    408d:	99 85 7d 82 7c 70 75 79 70 78 80 7a 81 89 83 89     ..}.|puypx.z....
    409d:	8a 84 81 84 7a 77 77 70 68 73 6f 6c 8d 78 80 9b     ....zwwphsol.x..
    40ad:	84 8e a2 87 8d 96 7d 7e 82 75 70 79 74 72 7f 7f     ......}~.upytr..
    40bd:	79 89 87 81 8c 87 7d 85 7b 75 78 70 6c 6d 76 66     y.....}.{uxplmvf
    40cd:	85 86 75 9a 8e 85 a0 92 83 96 85 78 82 79 6f 75     ..u........x.you
    40dd:	79 71 7b 84 7b 83 8d 83 87 8d 7e 80 81 72 79 73     yq{.{.....~..rys
    40ed:	6c 6f 73 6f 6f 90 7b 7f a3 84 8c a5 85 85 97 7a     losoo.{........z
    40fd:	78 83 73 6e 7b 78 71 84 85 7d 8b 8e 81 8a 89 79     x.sn{xq..}.....y
    410d:	81 7b 70 78 71 6d 72 73 72 71 92 82 7b a4 86 86     .{pxqmrsrq..{...
    411d:	a4 83 80 93 7a 74 81 75 6e 7b 7b 72 84 86 7d 8c     ....zt.un{{r..}.
    412d:	8d 7f 89 87 77 81 7a 70 78 71 6e 74 74 71 73 91     ....w.zpxqnttqs.
    413d:	83 7c a2 86 87 a3 82 7f 91 7a 75 81 76 6e 7c 7c     .|.......zu.vn||
    414d:	75 84 88 7e 8c 8f 7e 8b 86 75 80 79 6f 77 71 6e     u..~..~..u.yowqn
    415d:	75 76 73 70 93 85 7a a3 86 83 a2 83 7a 91 78 73     uvsp..z.....z.xs
    416d:	80 77 6f 7b 7f 76 84 88 81 88 8e 81 84 86 74 79     .wo{.v........ty
    417d:	7b 6e 74 75 6b 77 77 74 71 8e 8d 75 9c 91 78 9d     {ntukwwtq..u..x.
    418d:	8e 72 8f 82 6d 7e 7e 6e 7b 85 78 81 8c 84 85 8e     .r..m~~n{.x.....
    419d:	85 7e 86 7a 75 7b 72 73 76 70 76 78 7a 71 82 99     .~.zu{rsvpvxzq..
    41ad:	74 8d 9f 77 8d 9b 76 82 8c 73 76 80 78 73 81 80     t..w..v..sv.xs..
    41bd:	7b 87 8c 80 88 8d 7f 81 82 76 79 79 71 74 74 71     {........vyyqttq
    41cd:	76 7a 77 72 8f 8c 73 9b 8e 79 9a 8b 77 8c 82 71     vzwr..s..y..w..q
    41dd:	7e 7d 74 7a 81 7d 80 8b 85 81 8e 86 7a 84 7c 73     ~}tz.}......z.|s
    41ed:	7a 76 70 75 74 71 7d 7a 75 7b 93 7f 7d 9e 7f 83     zvputq}zu{..}...
    41fd:	99 80 79 8e 7a 74 82 7a 76 7d 82 7d 84 89 80 87     ..y.zt.zv}.}....
    420d:	8d 7e 80 83 76 77 7d 72 74 77 75 75 7f 78 76 7e     .~..vw}rtwuu.xv~
    421d:	8b 85 7b 98 86 7f 97 87 77 8e 7f 75 81 7c 78 7c     ..{.....w..u.|x|
    422d:	83 80 82 89 85 82 8b 83 7d 80 7a 78 7a 76 76 74     ........}.zxzvvt
    423d:	7c 73 7c 7f 73 7b 8b 87 76 97 89 7d 94 8e 78 88     |s|.s{..v..}..x.
    424d:	89 72 7d 7f 78 78 83 80 7f 87 87 82 88 86 7d 7f     .r}.xx........}.
    425d:	7a 77 7a 77 76 75 7c 77 78 81 74 76 88 8c 76 8d     zwzwvu|wx.tv..v.
    426d:	95 7d 8c 93 7c 81 8c 77 78 7e 79 77 7e 83 7f 84     .}..|..wx~yw~...
    427d:	8b 84 85 89 7e 7d 7d 76 7a 76 77 76 78 78 78 80     ....~}}vzvwvxxx.
    428d:	77 74 83 90 76 87 9a 7c 88 97 7e 7e 8d 79 79 7f     wt..v..|..~~.yy.
    429d:	79 77 7d 83 81 84 8a 87 85 88 82 79 7e 78 76 7a     yw}........y~xvz
    42ad:	77 75 79 7b 77 86 76 77 7f 89 84 7b 97 87 7e 93     wuy{w.vw...{..~.
    42bd:	8b 77 8a 83 77 7e 7d 7b 77 85 86 7f 88 89 82 85     .w..w~}{w.......
    42cd:	83 7a 7b 7a 77 77 78 7a 75 7c 7a 7e 7f 75 79 82     .z{zwwxzu|z~.uy.
    42dd:	8e 77 89 96 7c 89 94 7d 7e 8b 78 7b 7c 7e 78 79     .w..|..}~.x{|~xy
    42ed:	86 82 82 89 85 82 85 7e 7c 7d 78 78 78 78 79 76     .......~|}xxxxyv
    42fd:	7b 7a 82 7a 75 7c 87 88 78 91 8d 7b 92 8e 76 88     {z.zu|..x..{..v.
    430d:	85 76 7d 7c 7c 77 80 87 81 86 8c 82 84 85 7e 7d     .v}||w........~}
    431d:	7b 79 78 77 79 79 78 7d 7f 84 73 7c 7c 84 8b 76     {yxwyyx}..s||..v
    432d:	90 8d 7d 92 8d 77 89 85 77 7d 7c 7c 78 80 87 81     ..}..w..w}||x...
    433d:	86 8c 81 84 83 7e 7c 7b 78 77 79 78 78 7b 7e 80     .....~|{xwyxx{~.
    434d:	83 74 7f 76 88 8d 73 90 8e 7b 90 8f 75 8a 85 75     .t.v..s..{..u..u
    435d:	7d 7a 7c 7a 7f 88 84 85 8d 83 85 84 7a 7e 7c 78     }z|z........z~|x
    436d:	78 79 7a 78 7b 7c 7f 86 73 7e 79 83 90 74 8e 92     xyzx{|..s~y..t..
    437d:	7b 8e 92 7b 84 86 78 79 76 7d 79 7a 8b 85 85 8c     {..{..xyv}yz....
    438d:	86 84 85 7b 7b 7d 74 77 77 76 7a 77 7c 7d 88 76     ...{{}twwvzw|}.v
    439d:	7a 7d 79 91 78 83 97 81 87 96 80 7f 8a 79 78 78     z}y.x........yxx
    43ad:	7b 7b 76 88 88 81 8e 89 81 85 7f 77 79 79 73 78     {{v........wyysx
    43bd:	74 77 7b 79 7e 86 7a 74 81 6e 8c 89 72 95 8e 7d     tw{y~.zt.n..r..}
    43cd:	91 8b 7e 85 7e 79 78 78 7e 79 7d 8d 82 86 8e 86     ..~.~yxx~y}.....
    43dd:	81 85 7a 75 7a 73 74 7c 76 79 7d 7b 85 83 75 7e     ..zuzst|vy}{..u~
    43ed:	79 73 97 77 79 9e 81 80 98 84 7e 8a 7b 77 79 79     ys.wy.....~.{wyy
    43fd:	7d 79 87 89 83 8c 8b 85 83 83 79 79 77 77 76 79     }y........yywwvy
    440d:	79 7b 7b 7f 84 81 78 7e 72 76 99 72 80 9c 80 86     y{{...x~rv.r....
    441d:	9d 85 7c 8a 78 74 79 75 80 7a 85 90 86 8a 8c 83     ..|.xtyu.z......
    442d:	7f 82 77 78 78 76 74 7a 78 7b 7e 7e 88 7f 77 81     ..wxxvtzx{~~..w.
    443d:	6d 74 98 72 82 a2 80 86 9e 83 78 85 75 74 71 7b     mt.r......x.utq{
    444d:	88 80 85 97 8f 83 8a 7c 77 76 72 75 7d 7b 7f 82     .......|wvru}{..
    445d:	83 7d 80 7b 6c 61 6e 5b 6b b2 84 83 bd a8 74 90     .}.{lan[k.....t.
    446d:	89 62 6b 6e 75 7d 80 8e a3 91 8a 93 86 72 75 73     .bknu}.......rus
    447d:	6f 6e 74 85 86 83 8c 8b 7a 73 7e 6c 63 69 62 63     ont.....zs~lcibc
    448d:	69 b2 9e 7c b2 b0 76 72 87 68 64 6d 75 84 8f 87     i..|..vr.hdmu...
    449d:	a0 aa 7e 82 8b 6b 64 76 76 73 7b 8a 8c 8b 85 87     ..~..kdvvs{.....
    44ad:	7d 6f 70 6e 69 6d 76 61 7a 72 97 bf 84 86 af 85     }opnimvazr......
    44bd:	57 82 7b 64 75 7c 80 96 8c 8a a0 94 73 82 84 6d     W.{du|......s..m
    44cd:	6f 7a 7b 7a 7e 84 8c 86 7d 81 80 70 72 73 6b 69     oz{z~...}..prski
    44dd:	79 61 7b 74 8f bc 83 85 a9 86 58 81 74 64 79 7a     ya{t......X.tdyz
    44ed:	82 9b 8d 89 a0 87 6b 81 79 68 78 7b 82 82 82 88     ......k.yhx{....
    44fd:	8e 7b 79 7c 6f 6e 76 6e 75 7b 75 69 81 75 7a bb     .{y|onvnu{ui.uz.
    450d:	8d 75 a2 97 5e 7c 86 6d 7b 7f 82 8e 91 80 90 95     .u..^|.m{.......
    451d:	77 76 85 77 76 7a 83 81 7e 7d 82 85 76 7c 7a 77     wv.wvz..~}..v|zw
    452d:	74 74 75 80 7a 6f 6c 78 6f 77 b3 93 79 99 9b 70     ttu.zolxow..y..p
    453d:	7b 7f 71 7d 7b 74 8b 97 7d 8e 99 89 73 7c 7f 73     {.q}{t..}...s|.s
    454d:	77 76 7d 83 7f 7f 86 83 7c 76 7a 7d 6c 75 7c 7f     wv}.....|vz}lu|.
    455d:	73 7c 76 6c 73 7c ac 93 7f 99 9a 75 73 7b 74 7a     s|vls|.....us{tz
    456d:	7a 76 8d 9a 85 88 98 90 73 77 78 78 75 7c 7e 83     zv......swxxu|~.
    457d:	7f 81 89 84 7a 74 7c 71 76 73 75 82 81 71 7d 71     ....zt|qvsu..q}q
    458d:	70 69 8c b1 85 85 9d 96 6f 77 79 76 7b 74 7e 9a     pi......owyv{t~.
    459d:	92 81 93 96 81 74 76 79 78 74 7d 87 87 81 84 87     .....tvyxt}.....
    45ad:	84 6f 72 78 79 6d 76 87 83 81 7f 7d 6c 6d 5c 88     .orxymv....}lm\.
    45bd:	b1 8b 81 a3 9d 74 76 75 72 76 72 79 97 9d 8a 92     .....tvurvry....
    45cd:	94 86 72 6e 72 73 75 7e 88 8a 8a 86 88 7d 77 6e     ..rnrsu~.....}wn
    45dd:	74 7b 74 78 89 89 7f 84 7f 75 6a 65 5f 94 b1 90     t{tx.....uje_...
    45ed:	8d a2 93 73 6f 6a 6f 77 77 7f 9f a2 90 8f 8e 7c     ...sojoww......|
    45fd:	6a 67 6f 79 7c 81 90 95 8b 84 7f 79 72 6f 75 7e     jgoy|......yrou~
    460d:	7a 7e 89 8b 82 80 7f 76 6a 61 63 72 a2 b5 97 8e     z~.....vjacr....
    461d:	9d 85 67 64 65 72 7d 7e 8a a7 a6 8a 87 84 71 67     ..gder}~......qg
    462d:	69 71 7d 85 88 8f 92 8b 7f 7a 78 73 70 76 7d 7a     iq}......zxspv}z
    463d:	7e 8d 8b 80 81 7c 76 69 60 63 72 a1 b4 97 8c 9d     ~....|vi`cr.....
    464d:	85 65 65 66 71 7d 81 8e a7 a3 8a 85 7e 6d 65 67     .eefq}......~meg
    465d:	71 85 8c 87 92 91 82 79 75 72 6f 72 78 83 82 81     q......yurorx...
    466d:	8d 8c 7f 7a 79 6f 68 60 64 73 9d ba 99 8a 93 83     ...zyoh`ds......
    467d:	63 60 65 74 86 84 8d a3 a2 8c 7f 75 6c 68 6c 75     c`et.......ulhlu
    468d:	8b 92 8e 8f 8e 80 73 72 70 73 75 7e 85 8a 88 8a     ......srpsu~....
    469d:	86 7e 7a 76 73 6a 63 69 78 82 b4 b3 86 84 8b 72     .~zvsjcix......r
    46ad:	62 64 66 84 90 87 97 a8 92 7b 74 6d 6b 70 71 87     bdf......{tmkpq.
    46bd:	97 8f 89 8b 80 77 73 6c 73 7d 7b 81 8c 85 84 87     .....wsls}{.....
    46cd:	7e 79 79 71 73 72 6c 68 78 7e ad b5 7f 80 8c 75     ~yyqsrlhx~.....u
    46dd:	62 68 68 85 94 88 91 a2 91 7e 76 6d 6f 71 72 7e     bhh......~vmoqr~
    46ed:	91 90 8d 88 85 7e 75 6f 74 79 7b 7a 85 89 82 86     .....~uoty{z....
    46fd:	84 7d 79 79 75 75 70 6a 6c 78 80 ad b2 80 81 8d     .}yyuupjlx......
    470d:	74 63 6d 6c 86 95 84 91 a2 8c 7a 74 6f 71 75 75     tcml......ztoquu
    471d:	88 96 89 87 88 7f 77 72 71 79 7d 7e 86 89 85 82     ......wrqy}~....
    472d:	81 7e 7a 7d 71 78 78 72 6e 77 76 8e c0 90 76 8b     .~z}qxxrnwv...v.
    473d:	83 6a 6e 6c 77 97 8b 84 9e 9a 7e 77 6e 72 77 73     .jnlw.....~wnrws
    474d:	7b 92 91 87 8b 86 75 76 72 6d 7e 7f 80 8e 89 81     {.....uvrm~.....
    475d:	85 7d 7a 7c 77 74 7e 72 72 74 7a 75 92 bd 8a 77     .}z|wt~rrtzu...w
    476d:	86 7e 6d 71 6b 7d 98 89 86 9c 93 80 76 6c 75 78     .~mqk}......vlux
    477d:	73 7e 92 8f 89 82 86 81 6f 6c 7a 7d 7c 83 8a 8b     s~......olz}|...
    478d:	87 7f 7e 7d 79 75 76 7d 73 75 70 7e 78 99 b5 84     ..~}yuv}sup~x...
    479d:	7a 87 7a 6b 72 6d 80 99 8b 88 9c 8e 7c 77 6d 76     z.zkrm......|wmv
    47ad:	7d 78 82 90 8d 88 7f 84 84 6e 6d 7c 7d 7e 83 8a     }x.......nm|}~..
    47bd:	8b 85 7f 7e 7e 7b 75 78 7a 73 74 70 7c 79 9e b5     ...~~{uxzstp|y..
    47cd:	83 7a 87 7b 6c 71 6c 83 97 89 8b 99 8d 7e 75 6d     .z.{lql......~um
    47dd:	77 79 78 83 91 8e 88 7e 85 84 6c 6a 7b 7d 7f 84     wyx....~..lj{}..
    47ed:	85 89 87 7b 7b 7e 7a 76 76 77 72 72 73 7e 79 a1     ...{{~zvvwrrs~y.
    47fd:	af 80 7c 83 75 6e 73 6c 87 97 89 8e 98 89 7c 73     ..|.unsl......|s
    480d:	6f 76 7a 7b 88 90 8b 88 7f 79 7b 76 6d 7b 82 80     ovz{.....y{vm{..
    481d:	87 88 80 84 82 7a 7a 7c 77 77 77 71 73 76 7a 7f     .....zz|wwwqsvz.
    482d:	ab a5 7d 81 80 73 6f 6d 72 8f 94 88 91 95 85 7b     ..}..somr......{
    483d:	6f 6f 7a 79 7c 89 8e 8b 88 7a 82 84 68 6d 81 7c     oozy|....z..hm.|
    484d:	80 87 82 88 88 7a 7a 7d 7a 77 76 76 77 72 73 7e     .....zz}zwvvwrs~
    485d:	7f a5 a7 7d 7d 84 73 6f 74 70 8e 96 87 8f 94 88     ...}}.sotp......
    486d:	7d 75 70 79 7b 7c 88 8e 8a 86 7d 79 7e 75 73 7d     }upy{|....}y~us}
    487d:	7f 82 86 86 81 85 80 78 7c 7c 79 76 77 73 71 76     .......x||yvwsqv
    488d:	7b 79 93 aa 8d 7c 80 79 75 73 6c 80 96 8d 8a 8f     {y...|.yusl.....
    489d:	8a 81 79 6f 75 7e 7b 84 8a 89 88 81 79 7b 78 73     ..you~{.....y{xs
    48ad:	7a 7e 81 85 85 81 81 82 7d 7a 7b 7a 77 77 76 72     z~......}z{zwwvr
    48bd:	74 7a 79 86 a6 98 7d 81 7a 74 77 71 78 90 91 88     tzy...}.ztwqx...
    48cd:	8e 8c 84 7c 70 72 7c 7e 80 88 89 89 84 79 78 7a     ...|pr|~.....yxz
    48dd:	76 76 7e 82 84 86 82 81 82 80 7c 7d 7c 7b 7a 76     vv~.......|}|{zv
    48ed:	74 75 74 79 7a 85 a1 9b 80 7f 7e 77 77 72 7a 91     tutyz.....~wwrz.
    48fd:	93 88 8c 8c 84 7d 72 74 80 7f 7e 86 88 86 82 7a     .....}rt..~....z
    490d:	79 7d 79 78 7f 82 84 85 82 7f 81 81 7e 7d 7b 7b     y}yx........~}{{
    491d:	7a 76 73 73 79 7b 7c 8e 9f 91 82 7e 79 78 76 74     zvssy{|....~yxvt
    492d:	81 91 8e 8b 8b 87 83 7a 74 7a 7e 7d 82 84 86 86     .......ztz~}....
    493d:	7d 7b 7c 7a 79 7b 7c 82 84 82 81 7f 81 80 7e 7d     }{|zy{|.......~}
    494d:	7d 79 77 76 72 76 7b 79 80 91 96 8c 80 7b 7a 7b     }ywvrv{y.....{z{
    495d:	78 79 87 8f 8d 8a 86 85 80 79 77 7b 7f 7f 82 83     xy.......yw{....
    496d:	83 82 7d 7c 7c 7a 7b 7d 7d 81 81 80 81 7f 7e 81     ..}||z{}}.....~.
    497d:	7f 7a 7a 78 76 77 76 79 7c 7e 88 8e 8a 85 80 7d     .zzxvwvy|~.....}
    498d:	7d 7d 7e 84 8b 8c 8a 86 82 81 7e 7c 7c 7e 80 80     }}~.......~||~..
    499d:	82 82 82 7e 7c 7b 7b 7d 7b 7c 80 81 80 7f 7f 80     ...~|{{}{|......
    49ad:	7f 7c 7a 79 7b 7b 7c 7c 79 7c 85 88 86 87 85 83     .|zy{{||y|......
    49bd:	83 80 81 85 87 88 89 88 87 84 80 7f 7d 7d 7e 81     ............}}~.
    49cd:	81 81 80 7e 7d 7c 7c 7b 7c 7e 7f 7f 7f 7f 7f 7f     ...~}||{|~......
    49dd:	7d 7d 7d 79 7d 7e 7c 7b 79 79 7f 80 80 84 84 84     }}}y}~|{yy......
    49ed:	83 7f 81 85 84 85 85 85 88 86 83 83 80 7f 7f 7e     ...............~
    49fd:	7f 81 7f 7d 7f 7d 7c 7c 7b 7d 7f 7d 7d 7f 7e 7e     ...}.}||{}.}}.~~
    4a0d:	7e 7d 7d 7d 7c 7d 7e 7d 79 78 7a 7c 7d 7e 7f 82     ~}}}|}~}yxz|}~..
    4a1d:	82 82 82 81 82 83 84 84 86 85 87 87 83 83 83 81     ................
    4a2d:	81 82 80 80 80 7f 7f 7e 7c 7e 7e 7d 7e 7d 7c 7e     .......~|~~}~}|~
    4a3d:	7d 7c 7d 7e 7f 7f 7e 7c 7b 7b 7c 7c 7e 7e 7e 80     }|}~..~|{{||~~~.
    4a4d:	7f 7e 80 80 81 83 84 84 85 84 84 85 86 84 83 83     .~..............
    4a5d:	82 81 81 7f 7e 80 7f 7e 7e 7d 7c 7c 7b 7a 7c 7c     ....~..~~}||{z||
    4a6d:	7c 7d 7c 7c 7d 7b 7d 7e 7d 7c 7c 7c 7d 7f 7d 7c     |}||}{}~}|||}.}|
    4a7d:	7e 7f 7e 7d 7f 7f 80 81 80 80 81 83 81 81 81 81     ~.~}............
    4a8d:	81 81 81 81 81 80 80 7f 80 7f 7e 7e 7e 7e 7e 7e     ..........~~~~~~
    4a9d:	7e 7e 7d 7c 7c 7d 7d 7d 7d 7c 7d 7c 7c 7c 7d 7c     ~~}||}}}}|}|||}|
    4aad:	7d 7d 7e 7f 7d 7d 7f 80 80 7e 7e 81 81 80 7f 80     }}~.}}...~~.....
    4abd:	81 81 81 7f 81 82 81 80 80 81 82 80 7f 80 81 81     ................
    4acd:	80 80 80 80 80 7f 7f 80 7f 7f 7e 7e 7e 7e 7d 7d     ..........~~~~}}
    4add:	7e 7f 7d 7d 7c 7d 7e 7e 7e 7e 7f 7e 7f 7f 7e 7f     ~.}}|}~~~~.~..~.
    4aed:	80 81 80 7f 80 81 81 81 80 80 82 82 81 80 80 81     ................
    4afd:	81 82 81 80 81 81 81 80 81 81 81 80 80 80 80 7f     ................
    4b0d:	7f 7f 7f 7f 7e 7f 7f 7e 7e 7e 7d 7d 7d 7d 7e 7e     ....~..~~~}}}}~~
    4b1d:	7e 7e 7f 7f 7e 7e 7f 7f 7f 7f 80 7f 80 80 80 80     ~~..~~..........
    4b2d:	80 80 80 80 80 80 80 80 81 80 80 80 80 80 80 80     ................
    4b3d:	80 80 80 80 80 80 81 80 80 80 80 80 7f 80 7f 7f     ................
    4b4d:	7f 7f 7f 7f 7f 7f 7e 7e 7e 7f 7f 7f 7e 7e 7f 7f     ......~~~...~~..
    4b5d:	7f 7f 7f 80 7f 80 80 80 80 80 80 80 80 81 81 80     ................
    4b6d:	81 80 80 81 81 81 81 81 81 81 80 81 80 80 80 80     ................
    4b7d:	80 80 80 80 80 80 80 80 80 80 80 80 80 7f 80 80     ................
    4b8d:	80 80 7f 80 80 80 80 80 80 80 80 80 80 80 80 7f     ................
    4b9d:	80 80 80 80 80 80 80 80 80 80 80 80 80 80 80 80     ................
    4bad:	80 80 80 80 80 80 80 80 80 80 80 80 80 80 80 80     ................
    4bbd:	80 80 80 80 80 80 80 80 80 80 80 80 80 80 80 80     ................
    4bcd:	80 80 80 80 80 80 80 80 80 80 80 80 80 80 80 80     ................
    4bdd:	80 80 80 80 80 80 80 80 80 80 80 80 80 80 80 80     ................
    4bed:	80 80 7f 80 80 80 80 80 80 80 80 80 7f 7f 7f 7f     ................
    4bfd:	7f 80 80 7f 80 7f 7f 7f 7f 7f 7f 7f 7f 7f 7f 80     ................
    4c0d:	80 80 80 80 80 7f 7f 80 7f 80 80 80 80 80 80 80     ................
    4c1d:	80 80 80 80 80 7f 80 80 80 80 80                    ...........

00004c28 <bye_raw>:
    4c28:	7f 80 7f 80 80 7f 80 80 80 80 80 80 80 80 80 80     ................
    4c38:	80 80 80 80 80 80 80 80 80 80 80 80 80 80 80 80     ................
    4c48:	80 80 80 80 80 80 80 80 80 80 80 80 80 80 81 80     ................
    4c58:	80 80 80 80 80 80 80 80 80 80 80 80 80 80 80 80     ................
    4c68:	80 80 80 80 80 80 7f 7f 7f 7f 7f 7f 7f 7f 7f 7f     ................
    4c78:	7f 7f 7f 7f 7f 7f 7f 7f 7f 7f 7f 7f 7f 7f 7f 7f     ................
    4c88:	7f 7f 7f 7f 7f 7f 7f 7f 7f 7f 7f 7f 7f 7f 7f 7f     ................
    4c98:	7f 7f 7f 7f 7f 7f 7f 7f 7f 7f 7f 7f 7f 7f 7f 7f     ................
    4ca8:	7f 7f 7f 7f 7f 7f 7f 7f 7f 7f 7f 7f 7f 7f 7f 7f     ................
    4cb8:	7f 7f 7f 7f 7f 7f 7f 7f 7e 7f 7f 7f 7f 7f 7f 7f     ........~.......
    4cc8:	7f 7f 7f 7f 7f 7f 7f 7f 7f 7f 7f 7f 80 80 80 80     ................
    4cd8:	80 80 80 80 80 7f 80 7f 7f 80 80 7f 80 80 80 80     ................
    4ce8:	80 7f 7f 80 80 7f 7f 80 7f 7f 7f 7f 7f 80 80 80     ................
    4cf8:	80 80 80 80 80 7f 80 80 7f 7f 80 7f 7f 7f 7f 7f     ................
    4d08:	7f 7f 7f 7f 7f 7f 7e 7e 7f 7e 7e 7f 7f 7e 7e 7f     ......~~.~~..~~.
    4d18:	7f 7f 7e 7e 7f 7e 7e 7f 7f 7f 7f 7f 7f 7e 7f 7f     ..~~.~~......~..
    4d28:	7f 7e 7f 7f 7f 7e 7f 7f 7e 7f 7f 7f 7f 7f 7f 7f     .~...~..~.......
    4d38:	7e 80 7f 80 81 7e 7f 7f 7f 7f 7f 7e 7f 7e 7e 7e     ~....~.....~.~~~
    4d48:	7e 7e 7f 7f 7e 7f 7f 7f 7e 7f 7f 7f 7f 7f 7f 7f     ~~..~...~.......
    4d58:	7f 7f 7f 7f 7f 7f 7f 7f 7f 7f 7e 7e 7e 7e 7f 7f     ..........~~~~..
    4d68:	7e 7f 7f 7f 7e 7f 7f 7f 80 7f 80 7f 80 7f 80 80     ~...~...........
    4d78:	80 7f 7f 7f 7f 80 7f 7f 80 80 7f 80 7f 81 7f 85     ................
    4d88:	85 7d 81 80 80 81 81 7f 7f 80 80 81 81 80 80 81     .}..............
    4d98:	84 84 80 81 80 80 7f 7f 7e 7f 7f 7f 7d 7d 7c 7c     ........~...}}||
    4da8:	7e 7f 7f 7d 78 73 70 78 81 86 86 83 83 87 8b 87     ~..}xspx........
    4db8:	81 7e 7b 7d 81 81 80 83 85 89 8b 88 83 81 81 7f     .~{}............
    4dc8:	7e 7a 79 7b 7e 7f 7f 7e 7a 79 7b 79 73 6a 6d 80     ~zy{~..~zy{ysjm.
    4dd8:	8d 91 8d 85 84 8b 8b 82 79 75 76 7f 85 83 83 85     ........yuv.....
    4de8:	88 8d 8c 86 81 80 7f 7e 7d 7a 79 7b 7f 80 80 7d     .......~}zy{...}
    4df8:	78 78 7a 78 74 69 6c 81 8f 93 90 86 84 8d 8c 81     xxzxtil.........
    4e08:	79 74 74 81 87 85 84 87 89 8e 8b 80 7d 7e 7d 7e     ytt.........}~}~
    4e18:	7e 79 7c 80 82 82 80 79 77 7b 7d 7d 78 69 6a 83     ~y|....yw{}}xij.
    4e28:	92 95 91 82 7f 8d 8d 80 78 71 74 87 8c 87 86 85     ........xqt.....
    4e38:	88 90 8a 7d 7a 7b 7e 82 80 7b 7e 82 85 84 80 77     ...}z{~..{~....w
    4e48:	76 78 7b 7b 73 65 6a 86 95 99 90 7d 7e 8b 89 7e     vx{{sej....}~..~
    4e58:	75 6f 76 8a 8c 87 84 82 87 8e 86 7b 78 79 7e 82     uov........{xy~.
    4e68:	80 7c 7e 81 84 83 7e 76 74 75 7a 7a 72 64 6a 87     .|~...~vtuzzrdj.
    4e78:	96 99 8f 7d 7c 8b 89 7d 73 6d 77 8d 8d 87 85 82     ...}|..}smw.....
    4e88:	88 8f 84 79 78 7a 81 84 7f 7b 7f 82 86 83 7b 75     ...yxz...{....{u
    4e98:	74 75 7f 7c 72 66 69 86 99 99 8e 7f 7a 8a 8a 7b     tu.|rfi.....z..{
    4ea8:	72 6f 79 8f 91 87 83 82 89 90 84 78 78 7b 83 87     roy........xx{..
    4eb8:	7f 7d 81 83 86 83 79 74 73 74 7b 77 6f 65 74 93     .}....ytst{woet.
    4ec8:	9e 98 87 75 7c 8b 83 78 70 71 87 96 8f 87 7f 80     ...u|..xpq......
    4ed8:	8d 8d 7e 78 77 7d 89 85 7d 7d 7f 83 86 7e 75 73     ..~xw}..}}...~us
    4ee8:	70 78 7d 74 6a 63 7c 99 9e 93 7e 71 7f 8a 81 77     px}tjc|...~q...w
    4ef8:	70 76 8e 95 8b 83 7b 82 8d 88 7b 78 78 80 87 80     pv....{...{xx...
    4f08:	7c 7e 7f 84 83 7a 73 71 70 7b 7b 71 67 68 88 9d     |~...zsqp{{qgh..
    4f18:	9d 8e 77 74 85 87 7e 76 6f 7d 93 91 8a 80 7b 86     ..wt..~vo}....{.
    4f28:	8e 83 7a 78 79 85 85 7e 7e 7e 81 85 7f 77 73 6f     ..zxy..~~~...wso
    4f38:	74 7c 77 6e 63 75 96 9d 99 85 70 7a 89 82 7b 73     t|wncu....pz..{s
    4f48:	73 8b 96 8e 86 7b 7e 8c 8b 7f 79 77 7f 88 82 7e     s....{~...yw...~
    4f58:	7f 7f 87 87 7c 75 71 6f 7a 7e 75 6d 5f 7c 9c 9e     ....|uqoz~um_|..
    4f68:	97 7f 6d 80 8a 80 7b 70 77 91 96 8d 85 79 83 8e     ..m...{pw....y..
    4f78:	88 7f 79 76 83 87 81 80 7f 80 88 84 79 74 6c 71     ..yv........ytlq
    4f88:	7d 7e 77 6c 5d 7d 9b 9e 98 7c 6d 7e 88 81 7b 6e     }~wl]}...|m~..{n
    4f98:	76 8e 96 8e 85 78 7f 8c 89 7f 78 74 7e 86 81 7f     v....x....xt~...
    4fa8:	7e 7f 84 85 7a 75 6d 6e 79 80 79 70 5c 6d 95 9f     ~...zumny.yp\m..
    4fb8:	9f 86 6d 78 88 81 7d 70 70 89 97 92 89 79 7b 8b     ..mx..}pp....y{.
    4fc8:	89 81 7a 72 7d 87 83 82 7c 7e 85 84 7c 77 6c 6e     ..zr}...|~..|wln
    4fd8:	79 81 7d 74 5f 62 8e 9f a2 91 72 72 84 82 7d 72     y.}t_b....rr..}r
    4fe8:	6e 84 96 97 8f 7e 79 88 8a 86 7b 74 7c 87 85 83     n....~y...{t|...
    4ff8:	7d 7a 85 86 7e 78 6d 6d 79 80 81 78 66 5c 7f 9a     }z..~xmmy..xf\..
    5008:	a2 9a 7b 70 7f 83 80 79 6c 7d 90 98 94 83 79 83     ..{p...yl}....y.
    5018:	89 89 83 75 78 84 86 85 81 7a 82 85 84 7c 71 6d     ...ux....z...|qm
    5028:	76 80 87 7e 6f 62 61 89 9d 9d 90 73 6f 80 81 7e     v..~oba....so..~
    5038:	77 72 86 92 96 8e 7d 7b 84 86 8a 7e 76 80 84 87     wr....}{...~v...
    5048:	83 7b 7d 84 84 82 77 70 73 78 85 88 7c 6d 64 5c     .{}...wpsx..|md\
    5058:	78 98 9d 9f 87 72 77 79 7b 7c 78 82 90 93 93 88     x....rwy{|x.....
    5068:	7b 81 84 86 84 7b 7c 83 85 85 82 7e 82 83 84 7d     {....{|....~...}
    5078:	73 71 73 7d 87 85 77 6a 5f 61 86 9a 9f 98 7c 73     sqs}..wj_a....|s
    5088:	78 79 7b 7b 7a 89 91 92 90 80 7d 82 82 85 80 7c     xy{{z.....}....|
    5098:	82 82 84 83 7f 80 83 83 7e 79 73 73 79 82 86 81     ........~yssy...
    50a8:	71 6b 5d 6d 92 9d a3 8e 70 72 78 79 80 7a 81 8e     qk]m....prxy.z..
    50b8:	91 94 8b 7c 7d 80 85 89 81 7f 81 81 83 81 7f 80     ...|}...........
    50c8:	80 83 7e 77 73 73 7d 88 87 7f 6f 66 61 69 8f 9d     ..~wss}...ofai..
    50d8:	a2 92 72 6f 73 77 80 7d 81 8d 8e 92 8b 7c 7b 7d     ..rosw.}.....|{}
    50e8:	82 89 82 80 80 7f 82 80 7e 81 7f 81 7e 77 73 70     ........~...~wsp
    50f8:	79 85 89 88 7b 69 66 5b 76 99 9f a1 85 6e 70 74     y...{if[v....npt
    5108:	7c 84 7b 84 8d 8f 93 87 7c 7c 7f 84 8a 81 7e 7d     |.{.....||....~}
    5118:	7d 83 81 7f 81 7f 80 7d 75 74 71 7a 85 89 87 7a     }......}utqz...z
    5128:	6a 66 5d 74 99 a0 a3 87 6c 70 75 7e 86 7e 84 8c     jf]t....lpu~.~..
    5138:	8f 94 87 7a 7c 7f 8a 8b 81 7e 79 7e 83 82 83 81     ...z|....~y~....
    5148:	7f 81 7c 77 72 73 7f 8a 8d 85 74 68 63 5e 81 9a     ..|wrs....thc^..
    5158:	a0 a1 81 71 74 75 82 83 7e 8a 8a 90 93 85 7e 7e     ...qtu..~.....~~
    5168:	82 8b 87 7f 7b 7b 82 83 82 80 7e 7e 80 79 76 73     ....{{....~~.yvs
    5178:	75 82 8b 8d 84 75 67 66 61 76 95 9d a1 8a 74 72     u....ugfav....tr
    5188:	72 7d 83 7d 85 88 8e 91 88 7e 7c 80 87 88 7e 7d     r}.}.....~|...~}
    5198:	78 7f 84 83 83 7f 7e 80 7b 79 74 74 80 89 8c 89     x.....~.{ytt....
    51a8:	7b 71 68 67 69 70 93 9c 9f 90 74 6d 71 79 82 81     {qhgip....tmqy..
    51b8:	81 89 8b 90 8a 81 7d 7f 83 88 81 7c 7b 7b 83 84     ......}....|{{..
    51c8:	82 81 7e 7e 7f 79 77 74 7a 83 8d 8c 85 78 6e 66     ..~~.ywtz....xnf
    51d8:	66 69 7d 9a 9f 9f 85 6c 6d 74 7d 84 7e 83 8c 90     fi}....lmt}.~...
    51e8:	93 86 7c 7e 82 87 86 7d 7c 7c 83 86 83 81 7f 7f     ..|~...}||......
    51f8:	81 79 78 75 78 86 8e 91 8a 7c 73 6d 68 6c 68 87     .yxux....|smhlh.
    5208:	9d a2 9c 78 69 6e 77 82 83 7e 87 8b 92 8e 82 7d     ...xinw..~.....}
    5218:	7b 81 85 82 7e 7d 7f 84 83 81 7e 7d 7f 7f 78 76     {...~}....~}..xv
    5228:	73 7a 88 91 91 85 79 70 6c 6a 6b 68 84 9d a4 9d     sz....ypljkh....
    5238:	78 67 6a 74 83 83 80 89 8b 93 8f 7f 7a 79 80 87     xgjt........zy..
    5248:	83 7f 7d 7e 83 83 81 7d 7f 80 7a 79 74 74 7c 87     ..}~...}..zytt|.
    5258:	8f 90 87 7c 77 70 6d 6a 67 6d 8a 9d a0 92 73 67     ...|wpmjgm....sg
    5268:	6d 77 82 83 82 8b 8f 93 8c 7e 77 7a 81 86 83 7e     mw.......~wz...~
    5278:	7e 7f 85 84 80 7e 7f 80 7d 79 75 75 7c 88 8f 91     ~....~..}yuu|...
    5288:	86 7b 74 6f 6d 6a 6a 6e 8c 9d a1 92 71 67 6c 7a     .{tomjjn....qglz
    5298:	84 84 83 8b 90 93 8b 7f 78 7c 83 87 83 7f 7e 82     ........x|....~.
    52a8:	84 83 7f 7d 7d 7d 7b 76 76 76 7f 8b 90 8f 85 7b     ...}}}{vvv.....{
    52b8:	73 6d 6c 6b 6d 6e 88 9d 9f 94 71 66 6d 78 84 84     smlkmn....qfmx..
    52c8:	83 8c 91 93 88 7c 78 7b 84 87 82 7e 7e 81 86 82     .....|x{...~~...
    52d8:	7e 7e 80 80 7c 76 75 76 7f 89 92 91 85 7d 77 74     ~~..|vuv.....}wt
    52e8:	71 6e 6a 6e 72 8e 9e 98 8c 70 68 70 77 83 85 88     qnjnr....phpw...
    52f8:	90 8f 8d 83 79 79 7e 83 87 82 80 81 80 82 7e 7d     ....yy~.......~}
    5308:	7e 7f 7d 79 76 77 7a 83 8c 8f 8c 84 7e 78 74 70     ~.}yvwz.....~xtp
    5318:	6f 6e 74 72 83 97 94 93 7b 69 6c 72 7f 89 87 8d     ontr....{ilr....
    5328:	8e 8b 87 7b 79 7c 81 88 87 80 81 7f 80 80 7c 7e     ...{y|........|~
    5338:	7f 7f 7d 77 78 7b 7e 89 8b 8e 89 81 7c 75 72 71     ..}wx{~.....|urq
    5348:	70 70 75 75 8a 94 94 8c 70 69 6d 77 83 87 87 8e     ppuu....pimw....
    5358:	8c 89 83 7a 79 7e 85 89 85 80 7f 7d 80 7f 7e 7e     ...zy~.....}..~~
    5368:	7c 7c 79 77 79 7c 83 8b 8d 8a 83 7c 76 73 72 74     ||ywy|.....|vsrt
    5378:	73 72 72 75 8c 94 93 87 6e 6a 72 7c 88 88 86 8b     srru....njr|....
    5388:	89 89 81 77 79 80 88 8a 84 80 7e 7e 80 7d 7b 7e     ...wy.....~~.}{~
    5398:	7e 7d 7b 79 7a 7d 84 8b 8e 8b 81 7b 76 73 76 77     ~}{yz}.....{vsvw
    53a8:	76 76 74 6d 7a 8b 93 93 7b 6c 6e 77 86 8a 84 85     vvtmz...{lnw....
    53b8:	88 8a 89 7e 78 79 83 8e 8a 83 7e 7b 80 81 7c 7a     ...~xy....~{..|z
    53c8:	7b 80 82 7a 79 7a 7f 8b 8e 8e 87 7f 7b 78 78 7c     {..zyz......{xx|
    53d8:	7d 7e 7d 76 6e 67 7e 91 99 93 77 6f 75 7f 86 84     }~}vng~...wou...
    53e8:	7f 87 8c 8c 85 78 76 7e 88 8f 89 81 7d 7b 7e 7e     .....xv~....}{~~
    53f8:	7c 7b 7e 81 80 79 78 78 82 8e 90 8e 85 7e 7b 79     |{~..yxx.....~{y
    5408:	79 7d 7a 7b 79 72 68 6b 86 95 9b 89 72 6e 79 84     y}z{yrhk....rny.
    5418:	86 7e 7f 88 8c 8c 7f 76 78 82 8c 90 88 7f 7d 7b     .~.....vx.....}{
    5428:	7b 7d 7d 7f 82 81 80 7a 78 7b 84 8e 90 8b 81 79     {}}....zx{.....y
    5438:	77 7a 7d 7e 7d 79 72 6c 63 79 92 9a 97 7c 6c 73     wz}~}yrlcy...|ls
    5448:	7b 80 80 7d 88 91 8d 83 76 71 7f 87 88 86 83 87     {..}....vq......
    5458:	89 81 75 72 79 84 87 80 79 7b 84 8b 87 84 82 80     ..ury...y{......
    5468:	7f 7a 7a 7c 7e 7e 78 6e 6a 6a 6c 8d 9f 98 8b 6b     .zz|~~xnjjl....k
    5478:	66 77 7b 7d 80 86 98 96 82 77 71 7b 86 83 83 86     fw{}.....wq{....
    5488:	8b 8b 7f 75 74 7b 86 86 7f 7d 7f 84 89 85 85 84     ...ut{...}......
    5498:	82 80 7b 79 80 80 7c 7a 72 73 70 67 6c 90 a5 9b     ..{y..|zrspgl...
    54a8:	84 64 6c 7c 7c 7a 7a 89 9b 94 7f 75 74 81 85 80     .dl||zz....ut...
    54b8:	80 88 8d 89 7b 70 75 7e 85 83 80 81 81 83 87 84     ....{pu~........
    54c8:	88 87 80 7f 7b 7b 80 7d 7b 7a 75 74 6e 65 66 85     ....{{.}{zutnef.
    54d8:	a2 9c 85 6a 6b 7d 7c 75 7a 87 98 98 81 77 79 7f     ...jk}|uz....wy.
    54e8:	84 7f 7f 84 8a 88 7f 73 76 7b 7f 83 80 80 81 81     .......sv{......
    54f8:	84 86 82 89 85 7f 7d 79 7d 80 7c 7c 7b 73 73 6c     ......}y}.||{ssl
    5508:	65 6f 93 a1 95 7d 67 73 80 7a 76 7e 8d 9d 8e 7c     eo...}gs.zv~...|
    5518:	79 7c 85 84 7e 84 8b 8a 83 77 75 7b 7f 7f 7e 81     y|..~....wu{..~.
    5528:	85 82 7f 84 86 88 89 7e 7b 7d 7f 7f 7b 78 7e 7d     .......~{}..{x~}
    5538:	76 6c 63 65 74 97 9d 8d 7d 6e 74 7a 70 73 84 91     vlcet...}ntzps..
    5548:	9a 8a 7b 7d 7f 7b 7b 7e 89 8f 86 7c 75 76 7b 79     ..{}.{{~...|uv{y
    5558:	7c 83 84 86 80 7d 87 88 84 84 7e 7f 81 7b 79 7b     |....}....~..{y{
    5568:	7c 7f 7a 72 6c 67 67 78 98 9b 8a 7b 6f 76 79 6e     |.zrlggx...{ovyn
    5578:	77 8b 94 95 86 7c 82 80 79 7b 81 8c 8f 80 7a 7a     w....|..y{....zz
    5588:	79 78 77 7d 8a 88 80 7d 83 8e 89 82 80 83 85 7d     yxw}...}.......}
    5598:	76 7c 82 81 7e 77 74 72 69 63 6c 8f a4 91 80 76     v|..~wtricl....v
    55a8:	76 7b 6f 6e 88 97 94 8b 81 84 83 76 75 82 8d 8f     v{on.......vu...
    55b8:	85 7e 83 7d 74 75 7e 88 8a 81 80 88 8e 88 80 83     .~.}tu~.........
    55c8:	87 83 7b 78 7f 83 81 7a 79 79 72 68 61 69 88 a1     ..{x...zyyrhai..
    55d8:	91 83 7d 78 77 6d 6e 86 95 8f 8b 86 87 82 74 75     ..}xwmn.......tu
    55e8:	85 8b 8a 83 80 83 7c 72 76 81 87 86 7f 80 88 8d     ......|rv.......
    55f8:	82 7c 84 87 80 79 79 7e 82 7d 79 7b 77 6f 66 63     .|...yy~.}y{wofc
    5608:	70 93 9e 88 81 7b 76 76 6b 72 8d 94 8d 89 88 88     p....{vvkr......
    5618:	7d 71 77 86 89 89 85 84 84 77 6f 77 80 85 84 7f     }qw......wow....
    5628:	83 89 8b 84 80 84 87 80 79 7b 7f 81 7e 7a 7c 78     ........y{..~z|x
    5638:	6f 6a 66 6b 7f 9f 93 84 83 7a 75 6d 6c 81 93 8d     ojfk.....zuml...
    5648:	8e 8f 8c 80 74 75 81 85 82 87 89 86 7e 74 74 7d     ....tu......~tt}
    5658:	7f 80 83 85 86 8a 8b 83 82 85 82 7e 7d 7e 81 81     ...........~}~..
    5668:	7d 7b 7b 75 6c 6b 6a 6c 86 9a 8c 85 84 7a 75 6e     }{{ulkjl.....zun
    5678:	6f 84 8d 88 8f 92 89 7e 77 7c 81 7f 7f 8a 8a 83     o......~w|......
    5688:	7c 77 7b 7b 78 7f 84 81 85 8f 8f 83 80 82 7f 7a     |w{{x..........z
    5698:	7b 82 85 80 7d 7e 7c 72 6a 6b 69 69 7e 9d 91 85     {...}~|rjkii~...
    56a8:	8a 7e 75 6e 6d 7e 8b 86 8f 98 8e 83 7b 7a 7d 7c     .~unm~......{z}|
    56b8:	7b 86 8c 84 80 7d 78 7a 79 7b 82 82 81 8b 91 86     {....}xzy{......
    56c8:	81 82 7f 7a 7a 80 85 82 7e 80 7e 73 6a 6b 6a 6a     ...zz...~.~sjkjj
    56d8:	74 96 99 85 88 84 77 71 6d 77 8a 89 8c 98 92 83     t.....wqmw......
    56e8:	7d 7a 7a 7b 78 82 8d 86 82 83 7c 78 78 79 7e 7f     }zz{x.....|xxy~.
    56f8:	81 8c 95 8a 85 88 7f 7a 7a 7e 82 80 7f 83 7c 75     .......zz~....|u
    5708:	71 6e 6a 66 6d 8d 97 84 8d 8e 7b 73 70 73 7e 7f     qnjfm.....{sps~.
    5718:	87 97 94 8d 88 81 7b 77 74 7c 83 82 84 87 83 7c     ......{wt|.....|
    5728:	7b 79 77 7a 7c 84 90 8d 89 8c 85 7b 78 7b 7c 7b     {ywz|......{x{|{
    5738:	7d 83 81 79 75 75 6d 65 65 77 91 84 88 9a 87 79     }..yuumeew.....y
    5748:	7b 73 71 78 7b 8c 93 8f 94 90 7f 7d 79 71 78 7b     {sqx{......}yqx{
    5758:	7c 84 86 84 85 81 7b 79 76 79 85 8a 87 8c 8e 83     |.....{yvy......
    5768:	7e 7e 7a 76 77 7b 7e 79 79 79 75 6b 68 6c 79 86     ~~zvw{~yyyukhly.
    5778:	7f 8d 95 85 81 83 74 74 77 79 85 8a 8f 94 8e 85     ......ttwy......
    5788:	84 79 73 77 75 7b 81 82 83 84 82 7f 7b 77 7c 86     .yswu{......{w|.
    5798:	89 87 8f 8b 82 7f 7f 7a 78 7a 7e 7f 7a 7c 79 74     .......zxz~.z|yt
    57a8:	6b 6a 6e 80 84 81 92 90 82 83 7e 73 77 77 7c 85     kjn.......~sww|.
    57b8:	89 8f 91 8c 87 84 78 76 77 74 79 7d 80 83 84 84     ......xvwty}....
    57c8:	83 7d 7b 7d 84 82 84 8d 87 82 85 82 7a 7b 7a 79     .}{}........z{zy
    57d8:	77 77 76 75 71 6b 6c 73 84 7e 82 92 87 81 88 7e     wwvuqkls.~.....~
    57e8:	75 7a 7a 7c 82 89 8e 8f 8d 8d 85 7c 7c 75 72 77     uzz|.......||urw
    57f8:	77 7a 81 82 85 85 81 82 83 83 81 83 86 82 82 86     wz..............
    5808:	82 7d 80 7d 7a 79 77 75 73 6f 6c 6c 72 81 7f 82     .}.}zywusollr...
    5818:	90 8a 85 8a 81 7a 7d 7a 7a 82 86 8b 8f 8e 90 8a     .....z}zz.......
    5828:	83 81 79 74 77 75 76 7c 80 84 86 86 87 87 87 87     ..ytwuv|........
    5838:	83 84 85 80 83 85 7f 81 82 7e 7e 7c 77 76 70 6c     .........~~|wvpl
    5848:	6c 73 7e 7c 85 8f 87 89 8e 81 7e 81 79 79 80 81     ls~|......~.yy..
    5858:	85 8b 8b 8f 8a 86 84 7b 76 76 73 74 7a 7d 80 83     .......{vvstz}..
    5868:	84 87 87 87 86 84 83 83 7e 80 81 7d 80 81 7c 7b     ........~..}..|{
    5878:	7b 76 74 6e 6a 6b 72 7d 7a 84 8e 87 88 8d 82 80     {vtnjkr}z.......
    5888:	82 79 7a 80 80 84 89 8b 8e 8a 88 86 7d 79 78 73     .yz.........}yxs
    5898:	72 77 79 7d 80 84 87 8a 8d 89 89 87 81 80 7f 7b     rwy}...........{
    58a8:	7c 7d 7d 7d 7d 7c 7a 77 72 6e 6b 6e 78 77 7c 88     |}}}}|zwrnknxw|.
    58b8:	86 88 8f 89 85 87 80 7d 80 80 80 84 86 89 89 88     .......}........
    58c8:	88 83 7e 7d 79 74 76 77 78 7b 7f 83 87 8b 8c 8c     ..~}ytvwx{......
    58d8:	8d 8a 84 84 82 7d 7d 7e 7b 7b 7c 7a 78 77 72 6f     .....}}~{{|zxwro
    58e8:	71 76 78 78 82 85 83 8b 8c 86 88 87 81 81 83 81     qvxx............
    58f8:	81 84 87 85 86 88 83 81 81 7b 79 79 76 77 79 7a     .........{yyvwyz
    5908:	7d 81 86 89 8a 8d 8c 88 88 87 80 7f 7f 7c 79 7a     }............|yz
    5918:	78 76 76 74 70 70 71 73 77 78 7e 81 82 87 89 87     xvvtppqswx~.....
    5928:	88 88 84 84 84 83 83 85 85 84 85 85 82 81 7f 7b     ...............{
    5938:	7a 79 77 77 79 7a 7d 81 85 88 89 8b 8b 88 87 87     zywwyz}.........
    5948:	81 7f 7f 7b 79 7a 78 76 77 75 71 71 72 74 77 78     ...{yzxvwuqqrtwx
    5958:	7e 82 83 88 89 87 88 88 84 84 85 83 83 85 83 84     ~...............
    5968:	85 83 82 81 7e 7c 7b 78 77 78 79 7a 7d 80 84 86     ....~|{xwxyz}...
    5978:	88 8c 8b 8a 8b 87 84 83 7f 7d 7c 78 77 78 73 71     .........}|xwxsq
    5988:	72 70 72 76 77 7b 7f 82 85 87 87 88 88 87 87 86     rprvw{..........
    5998:	85 85 85 85 84 84 84 82 81 7f 7d 7b 7a 78 78 78     ..........}{zxxx
    59a8:	79 7b 7d 80 83 86 89 89 8a 8a 89 87 85 82 80 7d     y{}............}
    59b8:	7a 77 77 74 71 72 70 70 74 74 76 7b 7d 80 84 86     zwwtqrppttv{}...
    59c8:	87 89 89 89 88 88 87 86 86 85 84 83 83 81 81 7e     ...............~
    59d8:	7c 7c 7a 79 79 79 7a 7b 7d 80 82 85 87 88 89 89     ||zyyyz{}.......
    59e8:	89 87 86 84 81 7f 7c 79 78 76 73 71 71 70 72 74     ......|yxvsqqprt
    59f8:	75 79 7c 7f 83 86 87 8a 8b 8a 8b 8a 89 89 88 86     uy|.............
    5a08:	85 84 83 82 7f 7e 7d 7c 7b 7a 7a 7a 7b 7c 7d 7f     .....~}|{zzz{|}.
    5a18:	81 84 87 87 89 89 88 88 85 84 81 7e 7c 79 76 75     ...........~|yvu
    5a28:	73 71 73 73 74 78 7a 7c 81 83 84 87 88 89 8a 89     sqsstxz|........
    5a38:	89 89 88 87 86 85 84 83 81 7f 7e 7d 7b 7a 7a 79     ..........~}{zzy
    5a48:	7a 7a 7c 7e 80 81 84 85 86 87 86 86 85 82 80 7e     zz|~...........~
    5a58:	7b 79 77 75 73 73 72 73 75 77 79 7b 7e 81 83 85     {ywussrsuwy{~...
    5a68:	87 88 88 89 89 89 88 87 87 85 84 83 81 80 7e 7d     ..............~}
    5a78:	7c 7b 7a 7b 7a 7b 7c 7e 7f 81 82 83 84 85 85 85     |{z{z{|~........
    5a88:	84 82 81 7f 7d 7b 79 77 76 75 74 74 75 76 77 79     ....}{ywvuttuvwy
    5a98:	7b 7d 7f 82 83 85 86 87 88 88 88 87 87 86 85 84     {}..............
    5aa8:	83 82 80 7f 7e 7d 7c 7c 7b 7b 7b 7b 7c 7e 7f 80     ....~}||{{{{|~..
    5ab8:	81 83 84 85 85 85 85 83 82 81 7f 7d 7b 7a 78 77     ...........}{zxw
    5ac8:	76 76 76 77 78 79 7b 7c 7e 81 82 83 85 86 86 86     vvvwxy{|~.......
    5ad8:	87 87 86 85 84 83 82 81 7f 7e 7d 7c 7c 7c 7b 7c     .........~}|||{|
    5ae8:	7d 7e 7f 80 80 82 82 83 83 82 82 81 80 80 7e 7d     }~............~}
    5af8:	7c 7a 79 79 78 77 78 77 77 79 79 7a 7c 7d 7e 80     |zyyxwxwwyyz|}~.
    5b08:	81 83 84 84 85 86 86 86 86 85 84 84 82 81 81 7f     ................
    5b18:	7f 7e 7e 7d 7e 7e 7e 7f 80 80 81 81 82 82 82 82     .~~}~~~.........
    5b28:	82 82 81 81 80 7f 7e 7d 7b 7b 7b 79 79 7a 79 79     ......~}{{{yyzyy
    5b38:	7b 7b 7b 7e 7e 7f 81 82 83 84 84 85 86 85 85 85     {{{~~...........
    5b48:	85 84 84 83 82 82 81 80 80 80 7f 80 80 80 80 80     ................
    5b58:	80 81 82 81 82 82 81 81 81 80 80 7f 7e 7e 7d 7c     ............~~}|
    5b68:	7c 7c 7b 7b 7b 7b 7c 7c 7d 7d 7e 7e 7f 80 81 82     ||{{{{||}}~~....
    5b78:	83 83 84 84 84 84 84 83 83 83 82 82 82 81 81 81     ................
    5b88:	81 81 81 81 81 81 81 81 81 80 80 80 80 80 80 7f     ................
    5b98:	7e 7e 7d 7d 7d 7c 7c 7c 7b 7b 7c 7c 7b 7c 7d 7d     ~~}}}|||{{||{|}}
    5ba8:	7e 7f 7f 80 81 81 82 82 82 83 83 83 83 83 83 82     ~...............
    5bb8:	82 82 82 82 81 81 81 81 81 81 81 81 80 80 80 80     ................
    5bc8:	7f 7f 7f 7f 7e 7e 7e 7d 7d 7c 7c 7c 7c 7b 7c 7c     ....~~~}}||||{||
    5bd8:	7c 7d 7d 7d 7e 7f 7f 80 81 81 82 82 82 83 83 83     |}}}~...........
    5be8:	83 83 82 83 83 82 82 82 82 82 82 81 81 81 81 81     ................
    5bf8:	81 80 80 81 80 80 80 7f 7f 7f 7e 7e 7e 7e 7d 7d     ..........~~~~}}
    5c08:	7d 7d 7d 7d 7d 7d 7d 7d 7e 7e 7e 7e 7e 7f 7f 7f     }}}}}}}}~~~~~...
    5c18:	80 80 80 80 81 81 81 82 81 81 82 81 81 81 81 81     ................
    5c28:	81 81 81 81 80 80 80 80 80 7f 7f 7f 7e 7e 7e 7e     ............~~~~
    5c38:	7e 7d 7d 7d 7c 7c 7c 7c 7c 7c 7c 7d 7d 7d 7d 7d     ~}}}|||||||}}}}}
    5c48:	7e 7e 7e 7f 7f 7f 80 80 81 81 81 81 81 81 81 81     ~~~.............
    5c58:	81 81 80 80 80 81 80 80 81 80 80 80 7f 7f 7f 7f     ................
    5c68:	7f 7f 7e 7e 7e 7e 7e 7e 7e 7d 7d 7d 7d 7d 7e 7e     ..~~~~~~~}}}}}~~
    5c78:	7e 7e 7e 7e 7f 7f 7f 7f 7f 80 80 80 80 81 81 81     ~~~~............
    5c88:	81 81 81 81 81 81 81 81 81 81 81 81 81 81 81 81     ................
    5c98:	81 81 81 81 81 81 80 80 80 80 80 80 7f 7f 80 7f     ................
    5ca8:	7f 7f 7f 7f 7f 7f 7f 7f 7f 7f 7f 7f 7f 7f 7f 80     ................
    5cb8:	80 80 80 80 80 80 80 80 80 80 80 80 80 80 80 80     ................
    5cc8:	80 80 80 80 80 80 80 80 80 80 80 7f 7f 7f 7f 7f     ................
    5cd8:	7f 7f 7f 7f 7f 7e 7f 7f 7f 7f 7f 7f 7f 7f 7f 7f     .....~..........
    5ce8:	7f 7f 7f 7f 80 80 80 80 80 80 80 80 80 80 80 7f     ................
    5cf8:	7f 7f 80 7f 7f 7f 7f 7f 7f 7f 7f 7f 7f 7f 7f 7f     ................
    5d08:	7f 7f 7f 7f 7f 7f 7f 7f 7f 7f 7f 7f 80 7f 7f 7f     ................
    5d18:	80 7f 80 80 80 80 80 80 80 80 80 80 80 80 80 80     ................
    5d28:	80 80 80 80 80 80 80 80 80 80 80 80 80 80 80 81     ................
    5d38:	80 80 80 80 80 80 80 81 81 80 80 80 80 80 80 80     ................
    5d48:	81 80 80 81 81 80 80 80 80 80 80 7f 7f 80 80 80     ................
    5d58:	7f 7f 7f 80 80 80 80 80 80 80 7f 80 80 80 80 80     ................
    5d68:	80 80 80 80 80 80 80 7f 7f 80 80 80 80 80 80 80     ................
    5d78:	80 80 80 80 80 80 80 80 7f 7f 7f 7f 7f 7f 7f 7f     ................
    5d88:	7f 80 7f 80 80 7f 7f 80 80 80                       ..........

00005d92 <__ctors_end>:
    5d92:	11 24       	eor	r1, r1
    5d94:	1f be       	out	0x3f, r1	; 63
    5d96:	cf e5       	ldi	r28, 0x5F	; 95
    5d98:	d8 e0       	ldi	r29, 0x08	; 8
    5d9a:	de bf       	out	0x3e, r29	; 62
    5d9c:	cd bf       	out	0x3d, r28	; 61

00005d9e <__do_copy_data>:
    5d9e:	10 e0       	ldi	r17, 0x00	; 0
    5da0:	a0 e6       	ldi	r26, 0x60	; 96
    5da2:	b0 e0       	ldi	r27, 0x00	; 0
    5da4:	e8 e0       	ldi	r30, 0x08	; 8
    5da6:	f6 e6       	ldi	r31, 0x66	; 102
    5da8:	02 c0       	rjmp	.+4      	; 0x5dae <.do_copy_data_start>

00005daa <.do_copy_data_loop>:
    5daa:	05 90       	lpm	r0, Z+
    5dac:	0d 92       	st	X+, r0

00005dae <.do_copy_data_start>:
    5dae:	a6 36       	cpi	r26, 0x66	; 102
    5db0:	b1 07       	cpc	r27, r17
    5db2:	d9 f7       	brne	.-10     	; 0x5daa <.do_copy_data_loop>

00005db4 <__do_clear_bss>:
    5db4:	10 e0       	ldi	r17, 0x00	; 0
    5db6:	a6 e6       	ldi	r26, 0x66	; 102
    5db8:	b0 e0       	ldi	r27, 0x00	; 0
    5dba:	01 c0       	rjmp	.+2      	; 0x5dbe <.do_clear_bss_start>

00005dbc <.do_clear_bss_loop>:
    5dbc:	1d 92       	st	X+, r1

00005dbe <.do_clear_bss_start>:
    5dbe:	a2 37       	cpi	r26, 0x72	; 114
    5dc0:	b1 07       	cpc	r27, r17
    5dc2:	e1 f7       	brne	.-8      	; 0x5dbc <.do_clear_bss_loop>
    5dc4:	0e 94 aa 32 	call	0x6554	; 0x6554 <main>
    5dc8:	0c 94 02 33 	jmp	0x6604	; 0x6604 <_exit>

00005dcc <__bad_interrupt>:
    5dcc:	0c 94 00 00 	jmp	0	; 0x0 <__vectors>

00005dd0 <DIO_voidInitialize>:
#include "DIO_priv.h"
#include "DIO_config.h"
#include "DIO_int.h"

void DIO_voidInitialize(void)
{
    5dd0:	df 93       	push	r29
    5dd2:	cf 93       	push	r28
    5dd4:	cd b7       	in	r28, 0x3d	; 61
    5dd6:	de b7       	in	r29, 0x3e	; 62
	DDRA = DIO_u8_PORTA_DIRECTION;
    5dd8:	ea e3       	ldi	r30, 0x3A	; 58
    5dda:	f0 e0       	ldi	r31, 0x00	; 0
    5ddc:	8f ef       	ldi	r24, 0xFF	; 255
    5dde:	80 83       	st	Z, r24
	DDRB = DIO_u8_PORTB_DIRECTION;
    5de0:	e7 e3       	ldi	r30, 0x37	; 55
    5de2:	f0 e0       	ldi	r31, 0x00	; 0
    5de4:	8f ef       	ldi	r24, 0xFF	; 255
    5de6:	80 83       	st	Z, r24
	DDRC = DIO_u8_PORTC_DIRECTION;
    5de8:	e4 e3       	ldi	r30, 0x34	; 52
    5dea:	f0 e0       	ldi	r31, 0x00	; 0
    5dec:	8f ef       	ldi	r24, 0xFF	; 255
    5dee:	80 83       	st	Z, r24
	DDRD = DIO_u8_PORTD_DIRECTION;
    5df0:	e1 e3       	ldi	r30, 0x31	; 49
    5df2:	f0 e0       	ldi	r31, 0x00	; 0
    5df4:	80 ee       	ldi	r24, 0xE0	; 224
    5df6:	80 83       	st	Z, r24
}
    5df8:	cf 91       	pop	r28
    5dfa:	df 91       	pop	r29
    5dfc:	08 95       	ret

00005dfe <DIO_voidSetPinValue>:
void DIO_voidSetPinValue(u8 u8PinIndexCpy,u8 u8PinValueCpy)
{	
    5dfe:	df 93       	push	r29
    5e00:	cf 93       	push	r28
    5e02:	00 d0       	rcall	.+0      	; 0x5e04 <DIO_voidSetPinValue+0x6>
    5e04:	cd b7       	in	r28, 0x3d	; 61
    5e06:	de b7       	in	r29, 0x3e	; 62
    5e08:	89 83       	std	Y+1, r24	; 0x01
    5e0a:	6a 83       	std	Y+2, r22	; 0x02
	/*Check if the PIN index in PORTA range */
	if( (u8PinIndexCpy >= DIO_u8_PORTA_START) && (u8PinIndexCpy <= DIO_u8_PORTA_END) )
    5e0c:	89 81       	ldd	r24, Y+1	; 0x01
    5e0e:	88 30       	cpi	r24, 0x08	; 8
    5e10:	60 f5       	brcc	.+88     	; 0x5e6a <DIO_voidSetPinValue+0x6c>
	{
		if(u8PinValueCpy == DIO_u8_HIGH)
    5e12:	8a 81       	ldd	r24, Y+2	; 0x02
    5e14:	88 23       	and	r24, r24
    5e16:	a1 f4       	brne	.+40     	; 0x5e40 <DIO_voidSetPinValue+0x42>
		{
			SET_BIT(PORTA,u8PinIndexCpy);
    5e18:	ab e3       	ldi	r26, 0x3B	; 59
    5e1a:	b0 e0       	ldi	r27, 0x00	; 0
    5e1c:	eb e3       	ldi	r30, 0x3B	; 59
    5e1e:	f0 e0       	ldi	r31, 0x00	; 0
    5e20:	80 81       	ld	r24, Z
    5e22:	48 2f       	mov	r20, r24
    5e24:	89 81       	ldd	r24, Y+1	; 0x01
    5e26:	28 2f       	mov	r18, r24
    5e28:	30 e0       	ldi	r19, 0x00	; 0
    5e2a:	81 e0       	ldi	r24, 0x01	; 1
    5e2c:	90 e0       	ldi	r25, 0x00	; 0
    5e2e:	02 2e       	mov	r0, r18
    5e30:	02 c0       	rjmp	.+4      	; 0x5e36 <DIO_voidSetPinValue+0x38>
    5e32:	88 0f       	add	r24, r24
    5e34:	99 1f       	adc	r25, r25
    5e36:	0a 94       	dec	r0
    5e38:	e2 f7       	brpl	.-8      	; 0x5e32 <DIO_voidSetPinValue+0x34>
    5e3a:	84 2b       	or	r24, r20
    5e3c:	8c 93       	st	X, r24
    5e3e:	b3 c0       	rjmp	.+358    	; 0x5fa6 <DIO_voidSetPinValue+0x1a8>
		}
		else
		{
			CLR_BIT(PORTA,u8PinIndexCpy);
    5e40:	ab e3       	ldi	r26, 0x3B	; 59
    5e42:	b0 e0       	ldi	r27, 0x00	; 0
    5e44:	eb e3       	ldi	r30, 0x3B	; 59
    5e46:	f0 e0       	ldi	r31, 0x00	; 0
    5e48:	80 81       	ld	r24, Z
    5e4a:	48 2f       	mov	r20, r24
    5e4c:	89 81       	ldd	r24, Y+1	; 0x01
    5e4e:	28 2f       	mov	r18, r24
    5e50:	30 e0       	ldi	r19, 0x00	; 0
    5e52:	81 e0       	ldi	r24, 0x01	; 1
    5e54:	90 e0       	ldi	r25, 0x00	; 0
    5e56:	02 2e       	mov	r0, r18
    5e58:	02 c0       	rjmp	.+4      	; 0x5e5e <DIO_voidSetPinValue+0x60>
    5e5a:	88 0f       	add	r24, r24
    5e5c:	99 1f       	adc	r25, r25
    5e5e:	0a 94       	dec	r0
    5e60:	e2 f7       	brpl	.-8      	; 0x5e5a <DIO_voidSetPinValue+0x5c>
    5e62:	80 95       	com	r24
    5e64:	84 23       	and	r24, r20
    5e66:	8c 93       	st	X, r24
    5e68:	9e c0       	rjmp	.+316    	; 0x5fa6 <DIO_voidSetPinValue+0x1a8>
		}			
	}
	
	/*Check if the PIN index in PORTB range */
	else if( (u8PinIndexCpy >= DIO_u8_PORTB_START) && (u8PinIndexCpy <= DIO_u8_PORTB_END) )
    5e6a:	89 81       	ldd	r24, Y+1	; 0x01
    5e6c:	88 30       	cpi	r24, 0x08	; 8
    5e6e:	90 f1       	brcs	.+100    	; 0x5ed4 <DIO_voidSetPinValue+0xd6>
    5e70:	89 81       	ldd	r24, Y+1	; 0x01
    5e72:	80 31       	cpi	r24, 0x10	; 16
    5e74:	78 f5       	brcc	.+94     	; 0x5ed4 <DIO_voidSetPinValue+0xd6>
	{
		u8PinIndexCpy -= DIO_u8_PORTA_SIZE;	
    5e76:	89 81       	ldd	r24, Y+1	; 0x01
    5e78:	88 50       	subi	r24, 0x08	; 8
    5e7a:	89 83       	std	Y+1, r24	; 0x01
		if(u8PinValueCpy == DIO_u8_HIGH)
    5e7c:	8a 81       	ldd	r24, Y+2	; 0x02
    5e7e:	88 23       	and	r24, r24
    5e80:	a1 f4       	brne	.+40     	; 0x5eaa <DIO_voidSetPinValue+0xac>
		{
			SET_BIT(PORTB,u8PinIndexCpy);
    5e82:	a8 e3       	ldi	r26, 0x38	; 56
    5e84:	b0 e0       	ldi	r27, 0x00	; 0
    5e86:	e8 e3       	ldi	r30, 0x38	; 56
    5e88:	f0 e0       	ldi	r31, 0x00	; 0
    5e8a:	80 81       	ld	r24, Z
    5e8c:	48 2f       	mov	r20, r24
    5e8e:	89 81       	ldd	r24, Y+1	; 0x01
    5e90:	28 2f       	mov	r18, r24
    5e92:	30 e0       	ldi	r19, 0x00	; 0
    5e94:	81 e0       	ldi	r24, 0x01	; 1
    5e96:	90 e0       	ldi	r25, 0x00	; 0
    5e98:	02 2e       	mov	r0, r18
    5e9a:	02 c0       	rjmp	.+4      	; 0x5ea0 <DIO_voidSetPinValue+0xa2>
    5e9c:	88 0f       	add	r24, r24
    5e9e:	99 1f       	adc	r25, r25
    5ea0:	0a 94       	dec	r0
    5ea2:	e2 f7       	brpl	.-8      	; 0x5e9c <DIO_voidSetPinValue+0x9e>
    5ea4:	84 2b       	or	r24, r20
    5ea6:	8c 93       	st	X, r24
    5ea8:	7e c0       	rjmp	.+252    	; 0x5fa6 <DIO_voidSetPinValue+0x1a8>
		}
		else
		{
			CLR_BIT(PORTB,u8PinIndexCpy);
    5eaa:	a8 e3       	ldi	r26, 0x38	; 56
    5eac:	b0 e0       	ldi	r27, 0x00	; 0
    5eae:	e8 e3       	ldi	r30, 0x38	; 56
    5eb0:	f0 e0       	ldi	r31, 0x00	; 0
    5eb2:	80 81       	ld	r24, Z
    5eb4:	48 2f       	mov	r20, r24
    5eb6:	89 81       	ldd	r24, Y+1	; 0x01
    5eb8:	28 2f       	mov	r18, r24
    5eba:	30 e0       	ldi	r19, 0x00	; 0
    5ebc:	81 e0       	ldi	r24, 0x01	; 1
    5ebe:	90 e0       	ldi	r25, 0x00	; 0
    5ec0:	02 2e       	mov	r0, r18
    5ec2:	02 c0       	rjmp	.+4      	; 0x5ec8 <DIO_voidSetPinValue+0xca>
    5ec4:	88 0f       	add	r24, r24
    5ec6:	99 1f       	adc	r25, r25
    5ec8:	0a 94       	dec	r0
    5eca:	e2 f7       	brpl	.-8      	; 0x5ec4 <DIO_voidSetPinValue+0xc6>
    5ecc:	80 95       	com	r24
    5ece:	84 23       	and	r24, r20
    5ed0:	8c 93       	st	X, r24
    5ed2:	69 c0       	rjmp	.+210    	; 0x5fa6 <DIO_voidSetPinValue+0x1a8>
		}			
	}
	
	/*Check if the PIN index in PORTC range */
	else if( (u8PinIndexCpy >= DIO_u8_PORTC_START) && (u8PinIndexCpy <= DIO_u8_PORTC_END) )
    5ed4:	89 81       	ldd	r24, Y+1	; 0x01
    5ed6:	80 31       	cpi	r24, 0x10	; 16
    5ed8:	90 f1       	brcs	.+100    	; 0x5f3e <DIO_voidSetPinValue+0x140>
    5eda:	89 81       	ldd	r24, Y+1	; 0x01
    5edc:	88 31       	cpi	r24, 0x18	; 24
    5ede:	78 f5       	brcc	.+94     	; 0x5f3e <DIO_voidSetPinValue+0x140>
	{
		u8PinIndexCpy -= (DIO_u8_PORTA_SIZE + DIO_u8_PORTB_SIZE);	
    5ee0:	89 81       	ldd	r24, Y+1	; 0x01
    5ee2:	80 51       	subi	r24, 0x10	; 16
    5ee4:	89 83       	std	Y+1, r24	; 0x01
		if(u8PinValueCpy == DIO_u8_HIGH)
    5ee6:	8a 81       	ldd	r24, Y+2	; 0x02
    5ee8:	88 23       	and	r24, r24
    5eea:	a1 f4       	brne	.+40     	; 0x5f14 <DIO_voidSetPinValue+0x116>
		{
			SET_BIT(PORTC,u8PinIndexCpy);
    5eec:	a5 e3       	ldi	r26, 0x35	; 53
    5eee:	b0 e0       	ldi	r27, 0x00	; 0
    5ef0:	e5 e3       	ldi	r30, 0x35	; 53
    5ef2:	f0 e0       	ldi	r31, 0x00	; 0
    5ef4:	80 81       	ld	r24, Z
    5ef6:	48 2f       	mov	r20, r24
    5ef8:	89 81       	ldd	r24, Y+1	; 0x01
    5efa:	28 2f       	mov	r18, r24
    5efc:	30 e0       	ldi	r19, 0x00	; 0
    5efe:	81 e0       	ldi	r24, 0x01	; 1
    5f00:	90 e0       	ldi	r25, 0x00	; 0
    5f02:	02 2e       	mov	r0, r18
    5f04:	02 c0       	rjmp	.+4      	; 0x5f0a <DIO_voidSetPinValue+0x10c>
    5f06:	88 0f       	add	r24, r24
    5f08:	99 1f       	adc	r25, r25
    5f0a:	0a 94       	dec	r0
    5f0c:	e2 f7       	brpl	.-8      	; 0x5f06 <DIO_voidSetPinValue+0x108>
    5f0e:	84 2b       	or	r24, r20
    5f10:	8c 93       	st	X, r24
    5f12:	49 c0       	rjmp	.+146    	; 0x5fa6 <DIO_voidSetPinValue+0x1a8>
		}
		else
		{
			CLR_BIT(PORTC,u8PinIndexCpy);
    5f14:	a5 e3       	ldi	r26, 0x35	; 53
    5f16:	b0 e0       	ldi	r27, 0x00	; 0
    5f18:	e5 e3       	ldi	r30, 0x35	; 53
    5f1a:	f0 e0       	ldi	r31, 0x00	; 0
    5f1c:	80 81       	ld	r24, Z
    5f1e:	48 2f       	mov	r20, r24
    5f20:	89 81       	ldd	r24, Y+1	; 0x01
    5f22:	28 2f       	mov	r18, r24
    5f24:	30 e0       	ldi	r19, 0x00	; 0
    5f26:	81 e0       	ldi	r24, 0x01	; 1
    5f28:	90 e0       	ldi	r25, 0x00	; 0
    5f2a:	02 2e       	mov	r0, r18
    5f2c:	02 c0       	rjmp	.+4      	; 0x5f32 <DIO_voidSetPinValue+0x134>
    5f2e:	88 0f       	add	r24, r24
    5f30:	99 1f       	adc	r25, r25
    5f32:	0a 94       	dec	r0
    5f34:	e2 f7       	brpl	.-8      	; 0x5f2e <DIO_voidSetPinValue+0x130>
    5f36:	80 95       	com	r24
    5f38:	84 23       	and	r24, r20
    5f3a:	8c 93       	st	X, r24
    5f3c:	34 c0       	rjmp	.+104    	; 0x5fa6 <DIO_voidSetPinValue+0x1a8>
		}			
	}
	
	/*Check if the PIN index in PORTD range */
	else if( (u8PinIndexCpy >= DIO_u8_PORTD_START) && (u8PinIndexCpy <= DIO_u8_PORTD_END) )
    5f3e:	89 81       	ldd	r24, Y+1	; 0x01
    5f40:	88 31       	cpi	r24, 0x18	; 24
    5f42:	88 f1       	brcs	.+98     	; 0x5fa6 <DIO_voidSetPinValue+0x1a8>
    5f44:	89 81       	ldd	r24, Y+1	; 0x01
    5f46:	80 32       	cpi	r24, 0x20	; 32
    5f48:	70 f5       	brcc	.+92     	; 0x5fa6 <DIO_voidSetPinValue+0x1a8>
	{
		u8PinIndexCpy -= (DIO_u8_PORTA_SIZE + DIO_u8_PORTB_SIZE + DIO_u8_PORTC_SIZE);	
    5f4a:	89 81       	ldd	r24, Y+1	; 0x01
    5f4c:	88 51       	subi	r24, 0x18	; 24
    5f4e:	89 83       	std	Y+1, r24	; 0x01
		if(u8PinValueCpy == DIO_u8_HIGH)
    5f50:	8a 81       	ldd	r24, Y+2	; 0x02
    5f52:	88 23       	and	r24, r24
    5f54:	a1 f4       	brne	.+40     	; 0x5f7e <DIO_voidSetPinValue+0x180>
		{
			SET_BIT(PORTD,u8PinIndexCpy);
    5f56:	a2 e3       	ldi	r26, 0x32	; 50
    5f58:	b0 e0       	ldi	r27, 0x00	; 0
    5f5a:	e2 e3       	ldi	r30, 0x32	; 50
    5f5c:	f0 e0       	ldi	r31, 0x00	; 0
    5f5e:	80 81       	ld	r24, Z
    5f60:	48 2f       	mov	r20, r24
    5f62:	89 81       	ldd	r24, Y+1	; 0x01
    5f64:	28 2f       	mov	r18, r24
    5f66:	30 e0       	ldi	r19, 0x00	; 0
    5f68:	81 e0       	ldi	r24, 0x01	; 1
    5f6a:	90 e0       	ldi	r25, 0x00	; 0
    5f6c:	02 2e       	mov	r0, r18
    5f6e:	02 c0       	rjmp	.+4      	; 0x5f74 <DIO_voidSetPinValue+0x176>
    5f70:	88 0f       	add	r24, r24
    5f72:	99 1f       	adc	r25, r25
    5f74:	0a 94       	dec	r0
    5f76:	e2 f7       	brpl	.-8      	; 0x5f70 <DIO_voidSetPinValue+0x172>
    5f78:	84 2b       	or	r24, r20
    5f7a:	8c 93       	st	X, r24
    5f7c:	14 c0       	rjmp	.+40     	; 0x5fa6 <DIO_voidSetPinValue+0x1a8>
		}
		else
		{
			CLR_BIT(PORTD,u8PinIndexCpy);
    5f7e:	a2 e3       	ldi	r26, 0x32	; 50
    5f80:	b0 e0       	ldi	r27, 0x00	; 0
    5f82:	e2 e3       	ldi	r30, 0x32	; 50
    5f84:	f0 e0       	ldi	r31, 0x00	; 0
    5f86:	80 81       	ld	r24, Z
    5f88:	48 2f       	mov	r20, r24
    5f8a:	89 81       	ldd	r24, Y+1	; 0x01
    5f8c:	28 2f       	mov	r18, r24
    5f8e:	30 e0       	ldi	r19, 0x00	; 0
    5f90:	81 e0       	ldi	r24, 0x01	; 1
    5f92:	90 e0       	ldi	r25, 0x00	; 0
    5f94:	02 2e       	mov	r0, r18
    5f96:	02 c0       	rjmp	.+4      	; 0x5f9c <DIO_voidSetPinValue+0x19e>
    5f98:	88 0f       	add	r24, r24
    5f9a:	99 1f       	adc	r25, r25
    5f9c:	0a 94       	dec	r0
    5f9e:	e2 f7       	brpl	.-8      	; 0x5f98 <DIO_voidSetPinValue+0x19a>
    5fa0:	80 95       	com	r24
    5fa2:	84 23       	and	r24, r20
    5fa4:	8c 93       	st	X, r24
		}			
	}
}
    5fa6:	0f 90       	pop	r0
    5fa8:	0f 90       	pop	r0
    5faa:	cf 91       	pop	r28
    5fac:	df 91       	pop	r29
    5fae:	08 95       	ret

00005fb0 <DIO_u8GetPinValue>:
u8 DIO_u8GetPinValue (u8 u8PinIndexCpy)
{
    5fb0:	df 93       	push	r29
    5fb2:	cf 93       	push	r28
    5fb4:	00 d0       	rcall	.+0      	; 0x5fb6 <DIO_u8GetPinValue+0x6>
    5fb6:	00 d0       	rcall	.+0      	; 0x5fb8 <DIO_u8GetPinValue+0x8>
    5fb8:	cd b7       	in	r28, 0x3d	; 61
    5fba:	de b7       	in	r29, 0x3e	; 62
    5fbc:	8c 83       	std	Y+4, r24	; 0x04
	u8 actualIndexLoc;
	u8 digitalPinValue;
	u8 HighOrLow;
	if( (u8PinIndexCpy >= DIO_u8_PORTA_START) && (u8PinIndexCpy <= DIO_u8_PORTA_END))
    5fbe:	8c 81       	ldd	r24, Y+4	; 0x04
    5fc0:	88 30       	cpi	r24, 0x08	; 8
    5fc2:	00 f5       	brcc	.+64     	; 0x6004 <DIO_u8GetPinValue+0x54>
	{
		actualIndexLoc=u8PinIndexCpy;
    5fc4:	8c 81       	ldd	r24, Y+4	; 0x04
    5fc6:	8b 83       	std	Y+3, r24	; 0x03
		digitalPinValue=GET_BIT(PINA,actualIndexLoc);
    5fc8:	e9 e3       	ldi	r30, 0x39	; 57
    5fca:	f0 e0       	ldi	r31, 0x00	; 0
    5fcc:	80 81       	ld	r24, Z
    5fce:	48 2f       	mov	r20, r24
    5fd0:	50 e0       	ldi	r21, 0x00	; 0
    5fd2:	8b 81       	ldd	r24, Y+3	; 0x03
    5fd4:	28 2f       	mov	r18, r24
    5fd6:	30 e0       	ldi	r19, 0x00	; 0
    5fd8:	81 e0       	ldi	r24, 0x01	; 1
    5fda:	90 e0       	ldi	r25, 0x00	; 0
    5fdc:	02 c0       	rjmp	.+4      	; 0x5fe2 <DIO_u8GetPinValue+0x32>
    5fde:	88 0f       	add	r24, r24
    5fe0:	99 1f       	adc	r25, r25
    5fe2:	2a 95       	dec	r18
    5fe4:	e2 f7       	brpl	.-8      	; 0x5fde <DIO_u8GetPinValue+0x2e>
    5fe6:	9a 01       	movw	r18, r20
    5fe8:	28 23       	and	r18, r24
    5fea:	39 23       	and	r19, r25
    5fec:	8b 81       	ldd	r24, Y+3	; 0x03
    5fee:	88 2f       	mov	r24, r24
    5ff0:	90 e0       	ldi	r25, 0x00	; 0
    5ff2:	a9 01       	movw	r20, r18
    5ff4:	02 c0       	rjmp	.+4      	; 0x5ffa <DIO_u8GetPinValue+0x4a>
    5ff6:	55 95       	asr	r21
    5ff8:	47 95       	ror	r20
    5ffa:	8a 95       	dec	r24
    5ffc:	e2 f7       	brpl	.-8      	; 0x5ff6 <DIO_u8GetPinValue+0x46>
    5ffe:	ca 01       	movw	r24, r20
    6000:	8a 83       	std	Y+2, r24	; 0x02
    6002:	74 c0       	rjmp	.+232    	; 0x60ec <DIO_u8GetPinValue+0x13c>
	}
	else if( (u8PinIndexCpy >= DIO_u8_PORTB_START) && (u8PinIndexCpy <= DIO_u8_PORTB_END))
    6004:	8c 81       	ldd	r24, Y+4	; 0x04
    6006:	88 30       	cpi	r24, 0x08	; 8
    6008:	20 f1       	brcs	.+72     	; 0x6052 <DIO_u8GetPinValue+0xa2>
    600a:	8c 81       	ldd	r24, Y+4	; 0x04
    600c:	80 31       	cpi	r24, 0x10	; 16
    600e:	08 f5       	brcc	.+66     	; 0x6052 <DIO_u8GetPinValue+0xa2>
	{
		actualIndexLoc=u8PinIndexCpy-DIO_u8_PORTA_SIZE;
    6010:	8c 81       	ldd	r24, Y+4	; 0x04
    6012:	88 50       	subi	r24, 0x08	; 8
    6014:	8b 83       	std	Y+3, r24	; 0x03
		digitalPinValue=GET_BIT(PINB,actualIndexLoc);
    6016:	e6 e3       	ldi	r30, 0x36	; 54
    6018:	f0 e0       	ldi	r31, 0x00	; 0
    601a:	80 81       	ld	r24, Z
    601c:	48 2f       	mov	r20, r24
    601e:	50 e0       	ldi	r21, 0x00	; 0
    6020:	8b 81       	ldd	r24, Y+3	; 0x03
    6022:	28 2f       	mov	r18, r24
    6024:	30 e0       	ldi	r19, 0x00	; 0
    6026:	81 e0       	ldi	r24, 0x01	; 1
    6028:	90 e0       	ldi	r25, 0x00	; 0
    602a:	02 c0       	rjmp	.+4      	; 0x6030 <DIO_u8GetPinValue+0x80>
    602c:	88 0f       	add	r24, r24
    602e:	99 1f       	adc	r25, r25
    6030:	2a 95       	dec	r18
    6032:	e2 f7       	brpl	.-8      	; 0x602c <DIO_u8GetPinValue+0x7c>
    6034:	9a 01       	movw	r18, r20
    6036:	28 23       	and	r18, r24
    6038:	39 23       	and	r19, r25
    603a:	8b 81       	ldd	r24, Y+3	; 0x03
    603c:	88 2f       	mov	r24, r24
    603e:	90 e0       	ldi	r25, 0x00	; 0
    6040:	a9 01       	movw	r20, r18
    6042:	02 c0       	rjmp	.+4      	; 0x6048 <DIO_u8GetPinValue+0x98>
    6044:	55 95       	asr	r21
    6046:	47 95       	ror	r20
    6048:	8a 95       	dec	r24
    604a:	e2 f7       	brpl	.-8      	; 0x6044 <DIO_u8GetPinValue+0x94>
    604c:	ca 01       	movw	r24, r20
    604e:	8a 83       	std	Y+2, r24	; 0x02
    6050:	4d c0       	rjmp	.+154    	; 0x60ec <DIO_u8GetPinValue+0x13c>
	}
	else if((u8PinIndexCpy >= DIO_u8_PORTC_START) && (u8PinIndexCpy <= DIO_u8_PORTC_END))
    6052:	8c 81       	ldd	r24, Y+4	; 0x04
    6054:	80 31       	cpi	r24, 0x10	; 16
    6056:	20 f1       	brcs	.+72     	; 0x60a0 <DIO_u8GetPinValue+0xf0>
    6058:	8c 81       	ldd	r24, Y+4	; 0x04
    605a:	88 31       	cpi	r24, 0x18	; 24
    605c:	08 f5       	brcc	.+66     	; 0x60a0 <DIO_u8GetPinValue+0xf0>
	{
		actualIndexLoc=u8PinIndexCpy-DIO_u8_PORTA_SIZE-DIO_u8_PORTB_SIZE;
    605e:	8c 81       	ldd	r24, Y+4	; 0x04
    6060:	80 51       	subi	r24, 0x10	; 16
    6062:	8b 83       	std	Y+3, r24	; 0x03
		digitalPinValue=GET_BIT(PINB,actualIndexLoc);
    6064:	e6 e3       	ldi	r30, 0x36	; 54
    6066:	f0 e0       	ldi	r31, 0x00	; 0
    6068:	80 81       	ld	r24, Z
    606a:	48 2f       	mov	r20, r24
    606c:	50 e0       	ldi	r21, 0x00	; 0
    606e:	8b 81       	ldd	r24, Y+3	; 0x03
    6070:	28 2f       	mov	r18, r24
    6072:	30 e0       	ldi	r19, 0x00	; 0
    6074:	81 e0       	ldi	r24, 0x01	; 1
    6076:	90 e0       	ldi	r25, 0x00	; 0
    6078:	02 c0       	rjmp	.+4      	; 0x607e <DIO_u8GetPinValue+0xce>
    607a:	88 0f       	add	r24, r24
    607c:	99 1f       	adc	r25, r25
    607e:	2a 95       	dec	r18
    6080:	e2 f7       	brpl	.-8      	; 0x607a <DIO_u8GetPinValue+0xca>
    6082:	9a 01       	movw	r18, r20
    6084:	28 23       	and	r18, r24
    6086:	39 23       	and	r19, r25
    6088:	8b 81       	ldd	r24, Y+3	; 0x03
    608a:	88 2f       	mov	r24, r24
    608c:	90 e0       	ldi	r25, 0x00	; 0
    608e:	a9 01       	movw	r20, r18
    6090:	02 c0       	rjmp	.+4      	; 0x6096 <DIO_u8GetPinValue+0xe6>
    6092:	55 95       	asr	r21
    6094:	47 95       	ror	r20
    6096:	8a 95       	dec	r24
    6098:	e2 f7       	brpl	.-8      	; 0x6092 <DIO_u8GetPinValue+0xe2>
    609a:	ca 01       	movw	r24, r20
    609c:	8a 83       	std	Y+2, r24	; 0x02
    609e:	26 c0       	rjmp	.+76     	; 0x60ec <DIO_u8GetPinValue+0x13c>
	}
	else if((u8PinIndexCpy >= DIO_u8_PORTD_START) && (u8PinIndexCpy <= DIO_u8_PORTD_END))
    60a0:	8c 81       	ldd	r24, Y+4	; 0x04
    60a2:	88 31       	cpi	r24, 0x18	; 24
    60a4:	18 f1       	brcs	.+70     	; 0x60ec <DIO_u8GetPinValue+0x13c>
    60a6:	8c 81       	ldd	r24, Y+4	; 0x04
    60a8:	80 32       	cpi	r24, 0x20	; 32
    60aa:	00 f5       	brcc	.+64     	; 0x60ec <DIO_u8GetPinValue+0x13c>
	{
		actualIndexLoc=u8PinIndexCpy-DIO_u8_PORTA_SIZE-DIO_u8_PORTB_SIZE-DIO_u8_PORTC_SIZE;
    60ac:	8c 81       	ldd	r24, Y+4	; 0x04
    60ae:	88 51       	subi	r24, 0x18	; 24
    60b0:	8b 83       	std	Y+3, r24	; 0x03
		digitalPinValue=GET_BIT(PIND,actualIndexLoc);
    60b2:	e0 e3       	ldi	r30, 0x30	; 48
    60b4:	f0 e0       	ldi	r31, 0x00	; 0
    60b6:	80 81       	ld	r24, Z
    60b8:	48 2f       	mov	r20, r24
    60ba:	50 e0       	ldi	r21, 0x00	; 0
    60bc:	8b 81       	ldd	r24, Y+3	; 0x03
    60be:	28 2f       	mov	r18, r24
    60c0:	30 e0       	ldi	r19, 0x00	; 0
    60c2:	81 e0       	ldi	r24, 0x01	; 1
    60c4:	90 e0       	ldi	r25, 0x00	; 0
    60c6:	02 c0       	rjmp	.+4      	; 0x60cc <DIO_u8GetPinValue+0x11c>
    60c8:	88 0f       	add	r24, r24
    60ca:	99 1f       	adc	r25, r25
    60cc:	2a 95       	dec	r18
    60ce:	e2 f7       	brpl	.-8      	; 0x60c8 <DIO_u8GetPinValue+0x118>
    60d0:	9a 01       	movw	r18, r20
    60d2:	28 23       	and	r18, r24
    60d4:	39 23       	and	r19, r25
    60d6:	8b 81       	ldd	r24, Y+3	; 0x03
    60d8:	88 2f       	mov	r24, r24
    60da:	90 e0       	ldi	r25, 0x00	; 0
    60dc:	a9 01       	movw	r20, r18
    60de:	02 c0       	rjmp	.+4      	; 0x60e4 <DIO_u8GetPinValue+0x134>
    60e0:	55 95       	asr	r21
    60e2:	47 95       	ror	r20
    60e4:	8a 95       	dec	r24
    60e6:	e2 f7       	brpl	.-8      	; 0x60e0 <DIO_u8GetPinValue+0x130>
    60e8:	ca 01       	movw	r24, r20
    60ea:	8a 83       	std	Y+2, r24	; 0x02
	}

	if(digitalPinValue == 0)
    60ec:	8a 81       	ldd	r24, Y+2	; 0x02
    60ee:	88 23       	and	r24, r24
    60f0:	19 f4       	brne	.+6      	; 0x60f8 <DIO_u8GetPinValue+0x148>
	{
		HighOrLow=DIO_u8_LOW;
    60f2:	81 e0       	ldi	r24, 0x01	; 1
    60f4:	89 83       	std	Y+1, r24	; 0x01
    60f6:	04 c0       	rjmp	.+8      	; 0x6100 <DIO_u8GetPinValue+0x150>
	}
	else if(digitalPinValue ==1)
    60f8:	8a 81       	ldd	r24, Y+2	; 0x02
    60fa:	81 30       	cpi	r24, 0x01	; 1
    60fc:	09 f4       	brne	.+2      	; 0x6100 <DIO_u8GetPinValue+0x150>
	{
		HighOrLow=DIO_u8_HIGH;
    60fe:	19 82       	std	Y+1, r1	; 0x01
	}
	return HighOrLow;
    6100:	89 81       	ldd	r24, Y+1	; 0x01
}
    6102:	0f 90       	pop	r0
    6104:	0f 90       	pop	r0
    6106:	0f 90       	pop	r0
    6108:	0f 90       	pop	r0
    610a:	cf 91       	pop	r28
    610c:	df 91       	pop	r29
    610e:	08 95       	ret

00006110 <GIE_EnableGlobalInterrupt>:
#include "GIE_reg.h"
#include "GIE_priv.h"
#include "GIE_config.h"
#include "GIE_int.h"
void GIE_EnableGlobalInterrupt(void)
{
    6110:	df 93       	push	r29
    6112:	cf 93       	push	r28
    6114:	cd b7       	in	r28, 0x3d	; 61
    6116:	de b7       	in	r29, 0x3e	; 62
	SET_BIT(SREG,7);
    6118:	af e5       	ldi	r26, 0x5F	; 95
    611a:	b0 e0       	ldi	r27, 0x00	; 0
    611c:	ef e5       	ldi	r30, 0x5F	; 95
    611e:	f0 e0       	ldi	r31, 0x00	; 0
    6120:	80 81       	ld	r24, Z
    6122:	80 68       	ori	r24, 0x80	; 128
    6124:	8c 93       	st	X, r24
}
    6126:	cf 91       	pop	r28
    6128:	df 91       	pop	r29
    612a:	08 95       	ret

0000612c <GIE_DisableGlobalInterrupt>:

void GIE_DisableGlobalInterrupt(void)
{
    612c:	df 93       	push	r29
    612e:	cf 93       	push	r28
    6130:	cd b7       	in	r28, 0x3d	; 61
    6132:	de b7       	in	r29, 0x3e	; 62
	CLR_BIT(SREG,7);
    6134:	af e5       	ldi	r26, 0x5F	; 95
    6136:	b0 e0       	ldi	r27, 0x00	; 0
    6138:	ef e5       	ldi	r30, 0x5F	; 95
    613a:	f0 e0       	ldi	r31, 0x00	; 0
    613c:	80 81       	ld	r24, Z
    613e:	8f 77       	andi	r24, 0x7F	; 127
    6140:	8c 93       	st	X, r24
}
    6142:	cf 91       	pop	r28
    6144:	df 91       	pop	r29
    6146:	08 95       	ret

00006148 <SWD_u8GetSwitchState>:
#include"SWD_priv.h"
#include"SWD_int.h"


u8 SWD_u8GetSwitchState(u8 u8SwIdxCpy)
{
    6148:	df 93       	push	r29
    614a:	cf 93       	push	r28
    614c:	00 d0       	rcall	.+0      	; 0x614e <SWD_u8GetSwitchState+0x6>
    614e:	0f 92       	push	r0
    6150:	cd b7       	in	r28, 0x3d	; 61
    6152:	de b7       	in	r29, 0x3e	; 62
    6154:	8b 83       	std	Y+3, r24	; 0x03
	u8 DioStateLoc;
	u8 SwitchStateLoc;
	if(u8SwIdxCpy < SWD_u8_SW_NB)
    6156:	8b 81       	ldd	r24, Y+3	; 0x03
    6158:	85 30       	cpi	r24, 0x05	; 5
    615a:	20 f5       	brcc	.+72     	; 0x61a4 <SWD_u8GetSwitchState+0x5c>
	{
		DioStateLoc=DIO_u8GetPinValue(SWD_u8SwToDioLink[u8SwIdxCpy]);
    615c:	8b 81       	ldd	r24, Y+3	; 0x03
    615e:	88 2f       	mov	r24, r24
    6160:	90 e0       	ldi	r25, 0x00	; 0
    6162:	fc 01       	movw	r30, r24
    6164:	e0 5a       	subi	r30, 0xA0	; 160
    6166:	ff 4f       	sbci	r31, 0xFF	; 255
    6168:	80 81       	ld	r24, Z
    616a:	0e 94 d8 2f 	call	0x5fb0	; 0x5fb0 <DIO_u8GetPinValue>
    616e:	8a 83       	std	Y+2, r24	; 0x02
		/*if switch state equals its open state return released*/
		if(DioStateLoc==SWD_u8SwOpenState[u8SwIdxCpy])
    6170:	8b 81       	ldd	r24, Y+3	; 0x03
    6172:	88 2f       	mov	r24, r24
    6174:	90 e0       	ldi	r25, 0x00	; 0
    6176:	fc 01       	movw	r30, r24
    6178:	ea 59       	subi	r30, 0x9A	; 154
    617a:	ff 4f       	sbci	r31, 0xFF	; 255
    617c:	90 81       	ld	r25, Z
    617e:	8a 81       	ldd	r24, Y+2	; 0x02
    6180:	98 17       	cp	r25, r24
    6182:	19 f4       	brne	.+6      	; 0x618a <SWD_u8GetSwitchState+0x42>
		{
			SwitchStateLoc= SWD_u8RELEASED;
    6184:	81 e0       	ldi	r24, 0x01	; 1
    6186:	89 83       	std	Y+1, r24	; 0x01
    6188:	0e c0       	rjmp	.+28     	; 0x61a6 <SWD_u8GetSwitchState+0x5e>
		}
		/*if switch state not equal open state return pushed */
		else if(DioStateLoc != SWD_u8SwOpenState[u8SwIdxCpy])
    618a:	8b 81       	ldd	r24, Y+3	; 0x03
    618c:	88 2f       	mov	r24, r24
    618e:	90 e0       	ldi	r25, 0x00	; 0
    6190:	fc 01       	movw	r30, r24
    6192:	ea 59       	subi	r30, 0x9A	; 154
    6194:	ff 4f       	sbci	r31, 0xFF	; 255
    6196:	90 81       	ld	r25, Z
    6198:	8a 81       	ldd	r24, Y+2	; 0x02
    619a:	98 17       	cp	r25, r24
    619c:	21 f0       	breq	.+8      	; 0x61a6 <SWD_u8GetSwitchState+0x5e>
		{
			SwitchStateLoc= SWD_u8PUSHED;
    619e:	82 e0       	ldi	r24, 0x02	; 2
    61a0:	89 83       	std	Y+1, r24	; 0x01
    61a2:	01 c0       	rjmp	.+2      	; 0x61a6 <SWD_u8GetSwitchState+0x5e>
		}
	}
	/* Error: returned if the number of switch isn't in the range */
	else{
		SwitchStateLoc= SWD_u8ERROR;
    61a4:	19 82       	std	Y+1, r1	; 0x01
		}
	return SwitchStateLoc;
    61a6:	89 81       	ldd	r24, Y+1	; 0x01
}
    61a8:	0f 90       	pop	r0
    61aa:	0f 90       	pop	r0
    61ac:	0f 90       	pop	r0
    61ae:	cf 91       	pop	r28
    61b0:	df 91       	pop	r29
    61b2:	08 95       	ret

000061b4 <TIM_voidInitialize>:
static void (* TIM_CallBack) (void);
static void (* TIM_CallBack_CTC) (void);

/*Description: This function shall init the Timer prephiral*/
void TIM_voidInitialize(void)
{
    61b4:	df 93       	push	r29
    61b6:	cf 93       	push	r28
    61b8:	cd b7       	in	r28, 0x3d	; 61
    61ba:	de b7       	in	r29, 0x3e	; 62
	/*clear flag*/
	SET_BIT(TIFR,0);
    61bc:	a8 e5       	ldi	r26, 0x58	; 88
    61be:	b0 e0       	ldi	r27, 0x00	; 0
    61c0:	e8 e5       	ldi	r30, 0x58	; 88
    61c2:	f0 e0       	ldi	r31, 0x00	; 0
    61c4:	80 81       	ld	r24, Z
    61c6:	81 60       	ori	r24, 0x01	; 1
    61c8:	8c 93       	st	X, r24
	SET_BIT(TIFR,1);
    61ca:	a8 e5       	ldi	r26, 0x58	; 88
    61cc:	b0 e0       	ldi	r27, 0x00	; 0
    61ce:	e8 e5       	ldi	r30, 0x58	; 88
    61d0:	f0 e0       	ldi	r31, 0x00	; 0
    61d2:	80 81       	ld	r24, Z
    61d4:	82 60       	ori	r24, 0x02	; 2
    61d6:	8c 93       	st	X, r24
	/*disable interrupt for counting and ctc*/
	CLR_BIT(TIMSK,0);
    61d8:	a9 e5       	ldi	r26, 0x59	; 89
    61da:	b0 e0       	ldi	r27, 0x00	; 0
    61dc:	e9 e5       	ldi	r30, 0x59	; 89
    61de:	f0 e0       	ldi	r31, 0x00	; 0
    61e0:	80 81       	ld	r24, Z
    61e2:	8e 7f       	andi	r24, 0xFE	; 254
    61e4:	8c 93       	st	X, r24
	CLR_BIT(TIMSK,1);
    61e6:	a9 e5       	ldi	r26, 0x59	; 89
    61e8:	b0 e0       	ldi	r27, 0x00	; 0
    61ea:	e9 e5       	ldi	r30, 0x59	; 89
    61ec:	f0 e0       	ldi	r31, 0x00	; 0
    61ee:	80 81       	ld	r24, Z
    61f0:	8d 7f       	andi	r24, 0xFD	; 253
    61f2:	8c 93       	st	X, r24
	/*initialize timer register*/
	TCNT0=TIM_u8_INIT_VALUE;
	CLR_BIT(TCCR0,3);
	CLR_BIT(TCCR0,6);
#elif TIM_u8_MODE== TIM_u8_CTC_MODE
	OCR0=TIM_u8_OCR0_VALUE;
    61f4:	ec e5       	ldi	r30, 0x5C	; 92
    61f6:	f0 e0       	ldi	r31, 0x00	; 0
    61f8:	8d e7       	ldi	r24, 0x7D	; 125
    61fa:	80 83       	st	Z, r24
	SET_BIT(TCCR0,3);
    61fc:	a3 e5       	ldi	r26, 0x53	; 83
    61fe:	b0 e0       	ldi	r27, 0x00	; 0
    6200:	e3 e5       	ldi	r30, 0x53	; 83
    6202:	f0 e0       	ldi	r31, 0x00	; 0
    6204:	80 81       	ld	r24, Z
    6206:	88 60       	ori	r24, 0x08	; 8
    6208:	8c 93       	st	X, r24
	CLR_BIT(TCCR0,6);
    620a:	a3 e5       	ldi	r26, 0x53	; 83
    620c:	b0 e0       	ldi	r27, 0x00	; 0
    620e:	e3 e5       	ldi	r30, 0x53	; 83
    6210:	f0 e0       	ldi	r31, 0x00	; 0
    6212:	80 81       	ld	r24, Z
    6214:	8f 7b       	andi	r24, 0xBF	; 191
    6216:	8c 93       	st	X, r24
#endif
	/*set prescaler (which powers the timer not the interrupt but the timer it self)*/
#if TIM_u16_PRESCALER == TIM_u16_NO_DIVISON
	TCCR0 |= TIM_u8_NO_DIV_MASK;
#elif  TIM_u16_PRESCALER == TIM_u16_DIV_BY_8
	TCCR0 |= TIM_u8_DIV_BY_8_MASK;
    6218:	a3 e5       	ldi	r26, 0x53	; 83
    621a:	b0 e0       	ldi	r27, 0x00	; 0
    621c:	e3 e5       	ldi	r30, 0x53	; 83
    621e:	f0 e0       	ldi	r31, 0x00	; 0
    6220:	80 81       	ld	r24, Z
    6222:	82 60       	ori	r24, 0x02	; 2
    6224:	8c 93       	st	X, r24
#elif  TIM_u16_PRESCALER == TIM_u16_DIV_BY_256
	TCCR0 |= TIM_u8_DIV_BY_256_MASK;
#elif  TIM_u16_PRESCALER == TIM_u16_DIV_BY_1024
	TCCR0 |= TIM_u8_DIV_BY_1024_MASK;
#endif
}
    6226:	cf 91       	pop	r28
    6228:	df 91       	pop	r29
    622a:	08 95       	ret

0000622c <TIM_voidEnableInt>:

/*Description: enable Timer interrupt*/
void TIM_voidEnableInt(void)
{
    622c:	df 93       	push	r29
    622e:	cf 93       	push	r28
    6230:	cd b7       	in	r28, 0x3d	; 61
    6232:	de b7       	in	r29, 0x3e	; 62
	SET_BIT(TIMSK,0);
    6234:	a9 e5       	ldi	r26, 0x59	; 89
    6236:	b0 e0       	ldi	r27, 0x00	; 0
    6238:	e9 e5       	ldi	r30, 0x59	; 89
    623a:	f0 e0       	ldi	r31, 0x00	; 0
    623c:	80 81       	ld	r24, Z
    623e:	81 60       	ori	r24, 0x01	; 1
    6240:	8c 93       	st	X, r24
}
    6242:	cf 91       	pop	r28
    6244:	df 91       	pop	r29
    6246:	08 95       	ret

00006248 <TIM_voidDisableInt>:

/*Description: disable Timer interrupt*/
void TIM_voidDisableInt(void)
{
    6248:	df 93       	push	r29
    624a:	cf 93       	push	r28
    624c:	cd b7       	in	r28, 0x3d	; 61
    624e:	de b7       	in	r29, 0x3e	; 62
	CLR_BIT(TIMSK,0);
    6250:	a9 e5       	ldi	r26, 0x59	; 89
    6252:	b0 e0       	ldi	r27, 0x00	; 0
    6254:	e9 e5       	ldi	r30, 0x59	; 89
    6256:	f0 e0       	ldi	r31, 0x00	; 0
    6258:	80 81       	ld	r24, Z
    625a:	8e 7f       	andi	r24, 0xFE	; 254
    625c:	8c 93       	st	X, r24
}
    625e:	cf 91       	pop	r28
    6260:	df 91       	pop	r29
    6262:	08 95       	ret

00006264 <TIM_voidEnableIntCTC>:

/*Description: enable Timer interrupt CTC*/
void TIM_voidEnableIntCTC(void)
{
    6264:	df 93       	push	r29
    6266:	cf 93       	push	r28
    6268:	cd b7       	in	r28, 0x3d	; 61
    626a:	de b7       	in	r29, 0x3e	; 62
	SET_BIT(TIMSK,1);
    626c:	a9 e5       	ldi	r26, 0x59	; 89
    626e:	b0 e0       	ldi	r27, 0x00	; 0
    6270:	e9 e5       	ldi	r30, 0x59	; 89
    6272:	f0 e0       	ldi	r31, 0x00	; 0
    6274:	80 81       	ld	r24, Z
    6276:	82 60       	ori	r24, 0x02	; 2
    6278:	8c 93       	st	X, r24
}
    627a:	cf 91       	pop	r28
    627c:	df 91       	pop	r29
    627e:	08 95       	ret

00006280 <TIM_voidDisableIntCTC>:

/*Description: disable Timer interrupt CTC*/
void TIM_voidDisableIntCTC(void)
{
    6280:	df 93       	push	r29
    6282:	cf 93       	push	r28
    6284:	cd b7       	in	r28, 0x3d	; 61
    6286:	de b7       	in	r29, 0x3e	; 62
	CLR_BIT(TIMSK,1);
    6288:	a9 e5       	ldi	r26, 0x59	; 89
    628a:	b0 e0       	ldi	r27, 0x00	; 0
    628c:	e9 e5       	ldi	r30, 0x59	; 89
    628e:	f0 e0       	ldi	r31, 0x00	; 0
    6290:	80 81       	ld	r24, Z
    6292:	8d 7f       	andi	r24, 0xFD	; 253
    6294:	8c 93       	st	X, r24
}
    6296:	cf 91       	pop	r28
    6298:	df 91       	pop	r29
    629a:	08 95       	ret

0000629c <TIM_voidSetCallBack>:


/*Description: set Timer callback function*/
void TIM_voidSetCallBack(void (* ptrCpy) (void))
{
    629c:	df 93       	push	r29
    629e:	cf 93       	push	r28
    62a0:	00 d0       	rcall	.+0      	; 0x62a2 <TIM_voidSetCallBack+0x6>
    62a2:	cd b7       	in	r28, 0x3d	; 61
    62a4:	de b7       	in	r29, 0x3e	; 62
    62a6:	9a 83       	std	Y+2, r25	; 0x02
    62a8:	89 83       	std	Y+1, r24	; 0x01
	TIM_CallBack=ptrCpy;
    62aa:	89 81       	ldd	r24, Y+1	; 0x01
    62ac:	9a 81       	ldd	r25, Y+2	; 0x02
    62ae:	90 93 6c 00 	sts	0x006C, r25
    62b2:	80 93 6b 00 	sts	0x006B, r24
}
    62b6:	0f 90       	pop	r0
    62b8:	0f 90       	pop	r0
    62ba:	cf 91       	pop	r28
    62bc:	df 91       	pop	r29
    62be:	08 95       	ret

000062c0 <TIM_voidSetCallBackCTC>:

/*Description: set CTC Timer callback function*/
void TIM_voidSetCallBackCTC(void (* ptrCpy) (void))
{
    62c0:	df 93       	push	r29
    62c2:	cf 93       	push	r28
    62c4:	00 d0       	rcall	.+0      	; 0x62c6 <TIM_voidSetCallBackCTC+0x6>
    62c6:	cd b7       	in	r28, 0x3d	; 61
    62c8:	de b7       	in	r29, 0x3e	; 62
    62ca:	9a 83       	std	Y+2, r25	; 0x02
    62cc:	89 83       	std	Y+1, r24	; 0x01
	TIM_CallBack_CTC=ptrCpy;
    62ce:	89 81       	ldd	r24, Y+1	; 0x01
    62d0:	9a 81       	ldd	r25, Y+2	; 0x02
    62d2:	90 93 6e 00 	sts	0x006E, r25
    62d6:	80 93 6d 00 	sts	0x006D, r24
}
    62da:	0f 90       	pop	r0
    62dc:	0f 90       	pop	r0
    62de:	cf 91       	pop	r28
    62e0:	df 91       	pop	r29
    62e2:	08 95       	ret

000062e4 <TIM_voidInitCountingRegister>:

/*Description: init timer register*/
void TIM_voidInitCountingRegister(u8 u8ValueCpy)
{
    62e4:	df 93       	push	r29
    62e6:	cf 93       	push	r28
    62e8:	0f 92       	push	r0
    62ea:	cd b7       	in	r28, 0x3d	; 61
    62ec:	de b7       	in	r29, 0x3e	; 62
    62ee:	89 83       	std	Y+1, r24	; 0x01
	TCNT0 = u8ValueCpy;
    62f0:	e2 e5       	ldi	r30, 0x52	; 82
    62f2:	f0 e0       	ldi	r31, 0x00	; 0
    62f4:	89 81       	ldd	r24, Y+1	; 0x01
    62f6:	80 83       	st	Z, r24
}
    62f8:	0f 90       	pop	r0
    62fa:	cf 91       	pop	r28
    62fc:	df 91       	pop	r29
    62fe:	08 95       	ret

00006300 <TIM_voidInitCTCRegister>:

/*Description: init OCR0 timer register*/
void TIM_voidInitCTCRegister(u8 u8ValueCpy)
{
    6300:	df 93       	push	r29
    6302:	cf 93       	push	r28
    6304:	0f 92       	push	r0
    6306:	cd b7       	in	r28, 0x3d	; 61
    6308:	de b7       	in	r29, 0x3e	; 62
    630a:	89 83       	std	Y+1, r24	; 0x01
	OCR0 = u8ValueCpy;
    630c:	ec e5       	ldi	r30, 0x5C	; 92
    630e:	f0 e0       	ldi	r31, 0x00	; 0
    6310:	89 81       	ldd	r24, Y+1	; 0x01
    6312:	80 83       	st	Z, r24
}
    6314:	0f 90       	pop	r0
    6316:	cf 91       	pop	r28
    6318:	df 91       	pop	r29
    631a:	08 95       	ret

0000631c <__vector_11>:

void __vector_11 (void)__attribute__((signal,used));
void __vector_11 (void)
{
    631c:	1f 92       	push	r1
    631e:	0f 92       	push	r0
    6320:	0f b6       	in	r0, 0x3f	; 63
    6322:	0f 92       	push	r0
    6324:	11 24       	eor	r1, r1
    6326:	2f 93       	push	r18
    6328:	3f 93       	push	r19
    632a:	4f 93       	push	r20
    632c:	5f 93       	push	r21
    632e:	6f 93       	push	r22
    6330:	7f 93       	push	r23
    6332:	8f 93       	push	r24
    6334:	9f 93       	push	r25
    6336:	af 93       	push	r26
    6338:	bf 93       	push	r27
    633a:	ef 93       	push	r30
    633c:	ff 93       	push	r31
    633e:	df 93       	push	r29
    6340:	cf 93       	push	r28
    6342:	cd b7       	in	r28, 0x3d	; 61
    6344:	de b7       	in	r29, 0x3e	; 62
	TIM_CallBack();
    6346:	e0 91 6b 00 	lds	r30, 0x006B
    634a:	f0 91 6c 00 	lds	r31, 0x006C
    634e:	09 95       	icall
}
    6350:	cf 91       	pop	r28
    6352:	df 91       	pop	r29
    6354:	ff 91       	pop	r31
    6356:	ef 91       	pop	r30
    6358:	bf 91       	pop	r27
    635a:	af 91       	pop	r26
    635c:	9f 91       	pop	r25
    635e:	8f 91       	pop	r24
    6360:	7f 91       	pop	r23
    6362:	6f 91       	pop	r22
    6364:	5f 91       	pop	r21
    6366:	4f 91       	pop	r20
    6368:	3f 91       	pop	r19
    636a:	2f 91       	pop	r18
    636c:	0f 90       	pop	r0
    636e:	0f be       	out	0x3f, r0	; 63
    6370:	0f 90       	pop	r0
    6372:	1f 90       	pop	r1
    6374:	18 95       	reti

00006376 <__vector_10>:


void __vector_10 (void)__attribute__((signal,used));
void __vector_10 (void)
{
    6376:	1f 92       	push	r1
    6378:	0f 92       	push	r0
    637a:	0f b6       	in	r0, 0x3f	; 63
    637c:	0f 92       	push	r0
    637e:	11 24       	eor	r1, r1
    6380:	2f 93       	push	r18
    6382:	3f 93       	push	r19
    6384:	4f 93       	push	r20
    6386:	5f 93       	push	r21
    6388:	6f 93       	push	r22
    638a:	7f 93       	push	r23
    638c:	8f 93       	push	r24
    638e:	9f 93       	push	r25
    6390:	af 93       	push	r26
    6392:	bf 93       	push	r27
    6394:	ef 93       	push	r30
    6396:	ff 93       	push	r31
    6398:	df 93       	push	r29
    639a:	cf 93       	push	r28
    639c:	cd b7       	in	r28, 0x3d	; 61
    639e:	de b7       	in	r29, 0x3e	; 62
	TIM_CallBack_CTC();
    63a0:	e0 91 6d 00 	lds	r30, 0x006D
    63a4:	f0 91 6e 00 	lds	r31, 0x006E
    63a8:	09 95       	icall
}
    63aa:	cf 91       	pop	r28
    63ac:	df 91       	pop	r29
    63ae:	ff 91       	pop	r31
    63b0:	ef 91       	pop	r30
    63b2:	bf 91       	pop	r27
    63b4:	af 91       	pop	r26
    63b6:	9f 91       	pop	r25
    63b8:	8f 91       	pop	r24
    63ba:	7f 91       	pop	r23
    63bc:	6f 91       	pop	r22
    63be:	5f 91       	pop	r21
    63c0:	4f 91       	pop	r20
    63c2:	3f 91       	pop	r19
    63c4:	2f 91       	pop	r18
    63c6:	0f 90       	pop	r0
    63c8:	0f be       	out	0x3f, r0	; 63
    63ca:	0f 90       	pop	r0
    63cc:	1f 90       	pop	r1
    63ce:	18 95       	reti

000063d0 <DAC_Song>:
#include "bye.h"
////////////////////////
volatile u16 i=0;
u8 flag=0;
void DAC_Song(void)
{
    63d0:	df 93       	push	r29
    63d2:	cf 93       	push	r28
    63d4:	cd b7       	in	r28, 0x3d	; 61
    63d6:	de b7       	in	r29, 0x3e	; 62
	if(flag==1)
    63d8:	80 91 71 00 	lds	r24, 0x0071
    63dc:	81 30       	cpi	r24, 0x01	; 1
    63de:	11 f5       	brne	.+68     	; 0x6424 <DAC_Song+0x54>
	{
		asm ("LPM %0, Z"  "\n\t"  : "=r" (PORTA)  : "z" (&hello_raw[i]) ); //PORTA=file_raw[i];
    63e0:	ab e3       	ldi	r26, 0x3B	; 59
    63e2:	b0 e0       	ldi	r27, 0x00	; 0
    63e4:	80 91 6f 00 	lds	r24, 0x006F
    63e8:	90 91 70 00 	lds	r25, 0x0070
    63ec:	fc 01       	movw	r30, r24
    63ee:	ec 5a       	subi	r30, 0xAC	; 172
    63f0:	ff 4f       	sbci	r31, 0xFF	; 255
    63f2:	84 91       	lpm	r24, Z+
    63f4:	8c 93       	st	X, r24
		i++;
    63f6:	80 91 6f 00 	lds	r24, 0x006F
    63fa:	90 91 70 00 	lds	r25, 0x0070
    63fe:	01 96       	adiw	r24, 0x01	; 1
    6400:	90 93 70 00 	sts	0x0070, r25
    6404:	80 93 6f 00 	sts	0x006F, r24
		if(i==5666)
    6408:	80 91 6f 00 	lds	r24, 0x006F
    640c:	90 91 70 00 	lds	r25, 0x0070
    6410:	26 e1       	ldi	r18, 0x16	; 22
    6412:	82 32       	cpi	r24, 0x22	; 34
    6414:	92 07       	cpc	r25, r18
    6416:	09 f0       	breq	.+2      	; 0x641a <DAC_Song+0x4a>
    6418:	9a c0       	rjmp	.+308    	; 0x654e <DAC_Song+0x17e>
		{
			i=0;
    641a:	10 92 70 00 	sts	0x0070, r1
    641e:	10 92 6f 00 	sts	0x006F, r1
    6422:	95 c0       	rjmp	.+298    	; 0x654e <DAC_Song+0x17e>
		}
	}
	else if(flag==2)
    6424:	80 91 71 00 	lds	r24, 0x0071
    6428:	82 30       	cpi	r24, 0x02	; 2
    642a:	11 f5       	brne	.+68     	; 0x6470 <DAC_Song+0xa0>
	{
		asm ("LPM %0, Z"  "\n\t"  : "=r" (PORTA)  : "z" (&help_raw[i]) ); //PORTA=file_raw[i];
    642c:	ab e3       	ldi	r26, 0x3B	; 59
    642e:	b0 e0       	ldi	r27, 0x00	; 0
    6430:	80 91 6f 00 	lds	r24, 0x006F
    6434:	90 91 70 00 	lds	r25, 0x0070
    6438:	fc 01       	movw	r30, r24
    643a:	ea 58       	subi	r30, 0x8A	; 138
    643c:	f9 4e       	sbci	r31, 0xE9	; 233
    643e:	84 91       	lpm	r24, Z+
    6440:	8c 93       	st	X, r24
		i++;
    6442:	80 91 6f 00 	lds	r24, 0x006F
    6446:	90 91 70 00 	lds	r25, 0x0070
    644a:	01 96       	adiw	r24, 0x01	; 1
    644c:	90 93 70 00 	sts	0x0070, r25
    6450:	80 93 6f 00 	sts	0x006F, r24
		if(i==2508)
    6454:	80 91 6f 00 	lds	r24, 0x006F
    6458:	90 91 70 00 	lds	r25, 0x0070
    645c:	29 e0       	ldi	r18, 0x09	; 9
    645e:	8c 3c       	cpi	r24, 0xCC	; 204
    6460:	92 07       	cpc	r25, r18
    6462:	09 f0       	breq	.+2      	; 0x6466 <DAC_Song+0x96>
    6464:	74 c0       	rjmp	.+232    	; 0x654e <DAC_Song+0x17e>
		{
			i=0;
    6466:	10 92 70 00 	sts	0x0070, r1
    646a:	10 92 6f 00 	sts	0x006F, r1
    646e:	6f c0       	rjmp	.+222    	; 0x654e <DAC_Song+0x17e>
		}
	}
	else if(flag==3)
    6470:	80 91 71 00 	lds	r24, 0x0071
    6474:	83 30       	cpi	r24, 0x03	; 3
    6476:	11 f5       	brne	.+68     	; 0x64bc <DAC_Song+0xec>
	{
		asm ("LPM %0, Z"  "\n\t"  : "=r" (PORTA)  : "z" (&hungry_raw[i]) ); //PORTA=file_raw[i];
    6478:	ab e3       	ldi	r26, 0x3B	; 59
    647a:	b0 e0       	ldi	r27, 0x00	; 0
    647c:	80 91 6f 00 	lds	r24, 0x006F
    6480:	90 91 70 00 	lds	r25, 0x0070
    6484:	fc 01       	movw	r30, r24
    6486:	ee 5b       	subi	r30, 0xBE	; 190
    6488:	ff 4d       	sbci	r31, 0xDF	; 223
    648a:	84 91       	lpm	r24, Z+
    648c:	8c 93       	st	X, r24
		i++;
    648e:	80 91 6f 00 	lds	r24, 0x006F
    6492:	90 91 70 00 	lds	r25, 0x0070
    6496:	01 96       	adiw	r24, 0x01	; 1
    6498:	90 93 70 00 	sts	0x0070, r25
    649c:	80 93 6f 00 	sts	0x006F, r24
		if(i==5851)
    64a0:	80 91 6f 00 	lds	r24, 0x006F
    64a4:	90 91 70 00 	lds	r25, 0x0070
    64a8:	26 e1       	ldi	r18, 0x16	; 22
    64aa:	8b 3d       	cpi	r24, 0xDB	; 219
    64ac:	92 07       	cpc	r25, r18
    64ae:	09 f0       	breq	.+2      	; 0x64b2 <DAC_Song+0xe2>
    64b0:	4e c0       	rjmp	.+156    	; 0x654e <DAC_Song+0x17e>
		{
			i=0;
    64b2:	10 92 70 00 	sts	0x0070, r1
    64b6:	10 92 6f 00 	sts	0x006F, r1
    64ba:	49 c0       	rjmp	.+146    	; 0x654e <DAC_Song+0x17e>
		}
	}
	else if(flag==4)
    64bc:	80 91 71 00 	lds	r24, 0x0071
    64c0:	84 30       	cpi	r24, 0x04	; 4
    64c2:	09 f5       	brne	.+66     	; 0x6506 <DAC_Song+0x136>
	{
		asm ("LPM %0, Z"  "\n\t"  : "=r" (PORTA)  : "z" (&nayir_raw[i]) ); //PORTA=file_raw[i];
    64c4:	ab e3       	ldi	r26, 0x3B	; 59
    64c6:	b0 e0       	ldi	r27, 0x00	; 0
    64c8:	80 91 6f 00 	lds	r24, 0x006F
    64cc:	90 91 70 00 	lds	r25, 0x0070
    64d0:	fc 01       	movw	r30, r24
    64d2:	e3 5e       	subi	r30, 0xE3	; 227
    64d4:	f8 4c       	sbci	r31, 0xC8	; 200
    64d6:	84 91       	lpm	r24, Z+
    64d8:	8c 93       	st	X, r24
		i++;
    64da:	80 91 6f 00 	lds	r24, 0x006F
    64de:	90 91 70 00 	lds	r25, 0x0070
    64e2:	01 96       	adiw	r24, 0x01	; 1
    64e4:	90 93 70 00 	sts	0x0070, r25
    64e8:	80 93 6f 00 	sts	0x006F, r24
		if(i==5387)
    64ec:	80 91 6f 00 	lds	r24, 0x006F
    64f0:	90 91 70 00 	lds	r25, 0x0070
    64f4:	25 e1       	ldi	r18, 0x15	; 21
    64f6:	8b 30       	cpi	r24, 0x0B	; 11
    64f8:	92 07       	cpc	r25, r18
    64fa:	49 f5       	brne	.+82     	; 0x654e <DAC_Song+0x17e>
		{
			i=0;
    64fc:	10 92 70 00 	sts	0x0070, r1
    6500:	10 92 6f 00 	sts	0x006F, r1
    6504:	24 c0       	rjmp	.+72     	; 0x654e <DAC_Song+0x17e>
		}
	}
	else if(flag==5)
    6506:	80 91 71 00 	lds	r24, 0x0071
    650a:	85 30       	cpi	r24, 0x05	; 5
    650c:	01 f5       	brne	.+64     	; 0x654e <DAC_Song+0x17e>
	{
		asm ("LPM %0, Z"  "\n\t"  : "=r" (PORTA)  : "z" (&bye_raw[i]) ); //PORTA=file_raw[i];
    650e:	ab e3       	ldi	r26, 0x3B	; 59
    6510:	b0 e0       	ldi	r27, 0x00	; 0
    6512:	80 91 6f 00 	lds	r24, 0x006F
    6516:	90 91 70 00 	lds	r25, 0x0070
    651a:	fc 01       	movw	r30, r24
    651c:	e8 5d       	subi	r30, 0xD8	; 216
    651e:	f3 4b       	sbci	r31, 0xB3	; 179
    6520:	84 91       	lpm	r24, Z+
    6522:	8c 93       	st	X, r24
		i++;
    6524:	80 91 6f 00 	lds	r24, 0x006F
    6528:	90 91 70 00 	lds	r25, 0x0070
    652c:	01 96       	adiw	r24, 0x01	; 1
    652e:	90 93 70 00 	sts	0x0070, r25
    6532:	80 93 6f 00 	sts	0x006F, r24
		if(i==4458)
    6536:	80 91 6f 00 	lds	r24, 0x006F
    653a:	90 91 70 00 	lds	r25, 0x0070
    653e:	21 e1       	ldi	r18, 0x11	; 17
    6540:	8a 36       	cpi	r24, 0x6A	; 106
    6542:	92 07       	cpc	r25, r18
    6544:	21 f4       	brne	.+8      	; 0x654e <DAC_Song+0x17e>
		{
			i=0;
    6546:	10 92 70 00 	sts	0x0070, r1
    654a:	10 92 6f 00 	sts	0x006F, r1
	}
	else
	{

	}
}
    654e:	cf 91       	pop	r28
    6550:	df 91       	pop	r29
    6552:	08 95       	ret

00006554 <main>:
void main (void)
{
    6554:	df 93       	push	r29
    6556:	cf 93       	push	r28
    6558:	cd b7       	in	r28, 0x3d	; 61
    655a:	de b7       	in	r29, 0x3e	; 62
	DIO_voidInitialize();
    655c:	0e 94 e8 2e 	call	0x5dd0	; 0x5dd0 <DIO_voidInitialize>
	DIO_voidSetPinValue(DIO_u8_PIN_24,DIO_u8_HIGH);  //pull up sw1
    6560:	88 e1       	ldi	r24, 0x18	; 24
    6562:	60 e0       	ldi	r22, 0x00	; 0
    6564:	0e 94 ff 2e 	call	0x5dfe	; 0x5dfe <DIO_voidSetPinValue>
	DIO_voidSetPinValue(DIO_u8_PIN_25,DIO_u8_HIGH);  //pull up sw2
    6568:	89 e1       	ldi	r24, 0x19	; 25
    656a:	60 e0       	ldi	r22, 0x00	; 0
    656c:	0e 94 ff 2e 	call	0x5dfe	; 0x5dfe <DIO_voidSetPinValue>
	DIO_voidSetPinValue(DIO_u8_PIN_26,DIO_u8_HIGH); //pull up sw3
    6570:	8a e1       	ldi	r24, 0x1A	; 26
    6572:	60 e0       	ldi	r22, 0x00	; 0
    6574:	0e 94 ff 2e 	call	0x5dfe	; 0x5dfe <DIO_voidSetPinValue>
	DIO_voidSetPinValue(DIO_u8_PIN_27,DIO_u8_HIGH); //pull up sw4
    6578:	8b e1       	ldi	r24, 0x1B	; 27
    657a:	60 e0       	ldi	r22, 0x00	; 0
    657c:	0e 94 ff 2e 	call	0x5dfe	; 0x5dfe <DIO_voidSetPinValue>
	DIO_voidSetPinValue(DIO_u8_PIN_28,DIO_u8_HIGH); //pull up sw5
    6580:	8c e1       	ldi	r24, 0x1C	; 28
    6582:	60 e0       	ldi	r22, 0x00	; 0
    6584:	0e 94 ff 2e 	call	0x5dfe	; 0x5dfe <DIO_voidSetPinValue>
	TIM_voidSetCallBackCTC(DAC_Song);
    6588:	88 ee       	ldi	r24, 0xE8	; 232
    658a:	91 e3       	ldi	r25, 0x31	; 49
    658c:	0e 94 60 31 	call	0x62c0	; 0x62c0 <TIM_voidSetCallBackCTC>
	TIM_voidInitialize();
    6590:	0e 94 da 30 	call	0x61b4	; 0x61b4 <TIM_voidInitialize>
	TIM_voidEnableIntCTC();
    6594:	0e 94 32 31 	call	0x6264	; 0x6264 <TIM_voidEnableIntCTC>
	GIE_EnableGlobalInterrupt();
    6598:	0e 94 88 30 	call	0x6110	; 0x6110 <GIE_EnableGlobalInterrupt>
	while(1)
	{
		if(SWD_u8GetSwitchState(SWD_u8_SW1)==SWD_u8PUSHED)
    659c:	80 e0       	ldi	r24, 0x00	; 0
    659e:	0e 94 a4 30 	call	0x6148	; 0x6148 <SWD_u8GetSwitchState>
    65a2:	82 30       	cpi	r24, 0x02	; 2
    65a4:	21 f4       	brne	.+8      	; 0x65ae <main+0x5a>
		{
			flag=1;
    65a6:	81 e0       	ldi	r24, 0x01	; 1
    65a8:	80 93 71 00 	sts	0x0071, r24
    65ac:	f7 cf       	rjmp	.-18     	; 0x659c <main+0x48>
		}
		else if(SWD_u8GetSwitchState(SWD_u8_SW2)==SWD_u8PUSHED)
    65ae:	81 e0       	ldi	r24, 0x01	; 1
    65b0:	0e 94 a4 30 	call	0x6148	; 0x6148 <SWD_u8GetSwitchState>
    65b4:	82 30       	cpi	r24, 0x02	; 2
    65b6:	21 f4       	brne	.+8      	; 0x65c0 <main+0x6c>
		{
			flag=2;
    65b8:	82 e0       	ldi	r24, 0x02	; 2
    65ba:	80 93 71 00 	sts	0x0071, r24
    65be:	ee cf       	rjmp	.-36     	; 0x659c <main+0x48>
		}
		else if(SWD_u8GetSwitchState(SWD_u8_SW3)==SWD_u8PUSHED)
    65c0:	82 e0       	ldi	r24, 0x02	; 2
    65c2:	0e 94 a4 30 	call	0x6148	; 0x6148 <SWD_u8GetSwitchState>
    65c6:	82 30       	cpi	r24, 0x02	; 2
    65c8:	21 f4       	brne	.+8      	; 0x65d2 <main+0x7e>
		{
			flag=3;
    65ca:	83 e0       	ldi	r24, 0x03	; 3
    65cc:	80 93 71 00 	sts	0x0071, r24
    65d0:	e5 cf       	rjmp	.-54     	; 0x659c <main+0x48>
		}
		else if(SWD_u8GetSwitchState(SWD_u8_SW4)==SWD_u8PUSHED)
    65d2:	83 e0       	ldi	r24, 0x03	; 3
    65d4:	0e 94 a4 30 	call	0x6148	; 0x6148 <SWD_u8GetSwitchState>
    65d8:	82 30       	cpi	r24, 0x02	; 2
    65da:	21 f4       	brne	.+8      	; 0x65e4 <main+0x90>
		{
			flag=4;
    65dc:	84 e0       	ldi	r24, 0x04	; 4
    65de:	80 93 71 00 	sts	0x0071, r24
    65e2:	dc cf       	rjmp	.-72     	; 0x659c <main+0x48>
		}
		else if(SWD_u8GetSwitchState(SWD_u8_SW5)==SWD_u8PUSHED)
    65e4:	84 e0       	ldi	r24, 0x04	; 4
    65e6:	0e 94 a4 30 	call	0x6148	; 0x6148 <SWD_u8GetSwitchState>
    65ea:	82 30       	cpi	r24, 0x02	; 2
    65ec:	21 f4       	brne	.+8      	; 0x65f6 <main+0xa2>
		{
			flag=5;
    65ee:	85 e0       	ldi	r24, 0x05	; 5
    65f0:	80 93 71 00 	sts	0x0071, r24
    65f4:	d3 cf       	rjmp	.-90     	; 0x659c <main+0x48>
		}
		else
		{
			flag=0;
    65f6:	10 92 71 00 	sts	0x0071, r1
			i=0;
    65fa:	10 92 70 00 	sts	0x0070, r1
    65fe:	10 92 6f 00 	sts	0x006F, r1
    6602:	cc cf       	rjmp	.-104    	; 0x659c <main+0x48>

00006604 <_exit>:
    6604:	f8 94       	cli

00006606 <__stop_program>:
    6606:	ff cf       	rjmp	.-2      	; 0x6606 <__stop_program>
